EXPORTS
    FREEDIUS_C_COMPRESSION_CCITTFAX3 @1 DATA
    FREEDIUS_C_COMPRESSION_CCITTFAX4 @2 DATA
    FREEDIUS_C_COMPRESSION_CCITTRLE @3 DATA
    FREEDIUS_C_COMPRESSION_DCS @4 DATA
    FREEDIUS_C_COMPRESSION_DEFLATE @5 DATA
    FREEDIUS_C_COMPRESSION_JBIG @6 DATA
    FREEDIUS_C_COMPRESSION_JPEG @7 DATA
    FREEDIUS_C_COMPRESSION_LZW @8 DATA
    FREEDIUS_C_COMPRESSION_NONE @9 DATA
    FREEDIUS_C_COMPRESSION_OJPEG @10 DATA
    FREEDIUS_C_COMPRESSION_PACKBITS @11 DATA
    FREEDIUS_C_JPEGCOLORMODE_RAW @12 DATA
    FREEDIUS_C_JPEGCOLORMODE_RGB @13 DATA
    FREEDIUS_C_ORIENTATION_BOTLEFT @14 DATA
    FREEDIUS_C_ORIENTATION_BOTRIGHT @15 DATA
    FREEDIUS_C_ORIENTATION_LEFTBOT @16 DATA
    FREEDIUS_C_ORIENTATION_LEFTTOP @17 DATA
    FREEDIUS_C_ORIENTATION_RIGHTBOT @18 DATA
    FREEDIUS_C_ORIENTATION_RIGHTTOP @19 DATA
    FREEDIUS_C_ORIENTATION_TOPLEFT @20 DATA
    FREEDIUS_C_ORIENTATION_TOPRIGHT @21 DATA
    FREEDIUS_C_PHOTOMETRIC_CIELAB @22 DATA
    FREEDIUS_C_PHOTOMETRIC_MASK @23 DATA
    FREEDIUS_C_PHOTOMETRIC_MINISBLACK @24 DATA
    FREEDIUS_C_PHOTOMETRIC_MINISWHITE @25 DATA
    FREEDIUS_C_PHOTOMETRIC_PALETTE @26 DATA
    FREEDIUS_C_PHOTOMETRIC_RGB @27 DATA
    FREEDIUS_C_PHOTOMETRIC_SEPARATED @28 DATA
    FREEDIUS_C_PHOTOMETRIC_YCBCR @29 DATA
    FREEDIUS_C_PLANARCONFIG_CONTIG @30 DATA
    FREEDIUS_C_PLANARCONFIG_SEPARATE @31 DATA
    FREEDIUS_C_SAMPLEFORMAT_IEEEFP @32 DATA
    FREEDIUS_C_SAMPLEFORMAT_INT @33 DATA
    FREEDIUS_C_SAMPLEFORMAT_UINT @34 DATA
    FREEDIUS_C_SAMPLEFORMAT_VOID @35 DATA
    FREEDIUS_C_TIFFTAG_ARTIST @36 DATA
    FREEDIUS_C_TIFFTAG_BITSPERSAMPLE @37 DATA
    FREEDIUS_C_TIFFTAG_COMPRESSION @38 DATA
    FREEDIUS_C_TIFFTAG_DATETIME @39 DATA
    FREEDIUS_C_TIFFTAG_DOCUMENTNAME @40 DATA
    FREEDIUS_C_TIFFTAG_HOSTCOMPUTER @41 DATA
    FREEDIUS_C_TIFFTAG_IMAGEDESCRIPTION @42 DATA
    FREEDIUS_C_TIFFTAG_IMAGELENGTH @43 DATA
    FREEDIUS_C_TIFFTAG_IMAGEWIDTH @44 DATA
    FREEDIUS_C_TIFFTAG_INKNAMES @45 DATA
    FREEDIUS_C_TIFFTAG_JPEGCOLORMODE @46 DATA
    FREEDIUS_C_TIFFTAG_JPEGQUALITY @47 DATA
    FREEDIUS_C_TIFFTAG_MAKE @48 DATA
    FREEDIUS_C_TIFFTAG_MODEL @49 DATA
    FREEDIUS_C_TIFFTAG_ORIENTATION @50 DATA
    FREEDIUS_C_TIFFTAG_PAGENAME @51 DATA
    FREEDIUS_C_TIFFTAG_PHOTOMETRIC @52 DATA
    FREEDIUS_C_TIFFTAG_PLANARCONFIG @53 DATA
    FREEDIUS_C_TIFFTAG_REFERENCEBLACKWHITE @54 DATA
    FREEDIUS_C_TIFFTAG_ROWSPERSTRIP @55 DATA
    FREEDIUS_C_TIFFTAG_SAMPLEFORMAT @56 DATA
    FREEDIUS_C_TIFFTAG_SAMPLESPERPIXEL @57 DATA
    FREEDIUS_C_TIFFTAG_SOFTWARE @58 DATA
    FREEDIUS_C_TIFFTAG_TARGETPRINTER @59 DATA
    FREEDIUS_C_TIFFTAG_TILELENGTH @60 DATA
    FREEDIUS_C_TIFFTAG_TILEOFFSETS @61 DATA
    FREEDIUS_C_TIFFTAG_TILEWIDTH @62 DATA
    FREEDIUS_C_TIFFTAG_YCBCRSUBSAMPLING @63 DATA
    FREEDIUS_add_to_working_set @64
    FREEDIUS_all_image_page_pool_stats @65
    FREEDIUS_aref_T_aref_8 @66
    FREEDIUS_array_address @67
    FREEDIUS_array_image_array @68
    FREEDIUS_array_image_size_limit @69
    FREEDIUS_brk @70
    FREEDIUS_diref @71
    FREEDIUS_diset @72
    FREEDIUS_fast_gauss_convolve @73
    FREEDIUS_file_image_header_params @74
    FREEDIUS_file_image_page_filepos @75
    FREEDIUS_fixnum_aref_T @76
    FREEDIUS_free @77
    FREEDIUS_freedius_so_init @78
    FREEDIUS_galloc @79
    FREEDIUS_gauss_convolve_decimate @80
    FREEDIUS_get_page_pool @81
    FREEDIUS_get_tif @82
    FREEDIUS_get_tileaddr @83
    FREEDIUS_image_block_size @84
    FREEDIUS_image_blocks_hi @85
    FREEDIUS_image_blocks_wide @86
    FREEDIUS_image_class_code @87
    FREEDIUS_image_element_size @88
    FREEDIUS_image_element_type @89
    FREEDIUS_image_filter_decimate2 @90
    FREEDIUS_image_get_rectangle @91
    FREEDIUS_image_get_rectangle_bordered @92
    FREEDIUS_image_getcolumn @93
    FREEDIUS_image_getline @94
    FREEDIUS_image_page_pool_stats @95
    FREEDIUS_image_put_rectangle @96
    FREEDIUS_image_putcolumn @97
    FREEDIUS_image_putline @98
    FREEDIUS_image_set_dynamic_range @99
    FREEDIUS_image_xdim @100
    FREEDIUS_image_ydim @101
    FREEDIUS_interpolate_iref @102
    FREEDIUS_iref @103
    FREEDIUS_iset @104
    FREEDIUS_iu_testbed_image_file_header_params @105
    FREEDIUS_lazy_image_fill_tile_callback_address @106 DATA
    FREEDIUS_lazy_retile_image @107
    FREEDIUS_lisp_error_callback @108
    FREEDIUS_lisp_error_callback_callback_address @109 DATA
    FREEDIUS_lisp_make_array_image @110
    FREEDIUS_load_image @111
    FREEDIUS_machine_endian @112
    FREEDIUS_make_array_image @113
    FREEDIUS_make_array_image_callback_callback_address @114 DATA
    FREEDIUS_make_coef_image_from_jpeg_buffer @115
    FREEDIUS_make_file_image @116
    FREEDIUS_make_image @117
    FREEDIUS_make_image_blocked @118
    FREEDIUS_make_image_callback_callback_address @119 DATA
    FREEDIUS_make_image_from_jpeg_buffer @120
    FREEDIUS_make_image_page_queue_entry_arrays @121
    FREEDIUS_make_image_page_queue_entry_arrays_callback_address @122 DATA
    FREEDIUS_make_jpeg_buffer_from_image @123
    FREEDIUS_make_lisp_array_image @124
    FREEDIUS_make_lisp_array_image_callback_address @125 DATA
    FREEDIUS_make_lisp_lazy_image @126
    FREEDIUS_make_lisp_page_handler_block_map @127
    FREEDIUS_make_lisp_page_handler_block_map_callback_address @128 DATA
    FREEDIUS_make_lisp_paged_image @129
    FREEDIUS_make_lisp_paged_image_callback_address @130 DATA
    FREEDIUS_make_tiff_file_image @131
    FREEDIUS_make_tiff_lazy_image @132
    FREEDIUS_map_array_image @133
    FREEDIUS_map_paged_image @134
    FREEDIUS_paged_image_iref_fault @135
    FREEDIUS_paged_image_iset_fault @136
    FREEDIUS_paged_image_read_only @137
    FREEDIUS_read_image_header @138
    FREEDIUS_read_property_list_string @139
    FREEDIUS_recognize_image_header @140
    FREEDIUS_release_image_pages @141
    FREEDIUS_reload_image @142
    FREEDIUS_remove_from_working_set @143
    FREEDIUS_resize_image_page_pool @144
    FREEDIUS_rgb8_to_yuv_images @145
    FREEDIUS_save_image @146
    FREEDIUS_save_iu_testbed_image @147
    FREEDIUS_save_jpeg_image @148
    FREEDIUS_save_tiff_image @149
    FREEDIUS_save_untiled_tiff_image @150
    FREEDIUS_setLispErrorHandlers @151
    FREEDIUS_set_ab_gains @152
    FREEDIUS_set_array_image_arrays @153
    FREEDIUS_set_default_file_image_directory @154
    FREEDIUS_set_file_image_default_format @155
    FREEDIUS_set_image_page_queue_entry_arrays @156
    FREEDIUS_set_lisp_array_header_offset @157
    FREEDIUS_set_page_handler_block_map @158
    FREEDIUS_set_paged_image_arrays @159
    FREEDIUS_set_paged_image_tile_offset_bits @160
    FREEDIUS_set_qcmebindir_path @161
    FREEDIUS_set_save_image_default_format @162
    FREEDIUS_set_write_trace_debug_level @163
    FREEDIUS_swap_endian_16 @164
    FREEDIUS_swap_endian_32 @165
    FREEDIUS_swap_endian_double_float @166
    FREEDIUS_swap_endian_single_float @167
    FREEDIUS_test_page_maps @168
    FREEDIUS_tiff_file_header_params @169
    FREEDIUS_unmake_image_page_queue_entry_arrays @170
    FREEDIUS_unmake_image_page_queue_entry_arrays_callback_address @171 DATA
    FREEDIUS_update_array_image_arrays @172
    FREEDIUS_update_paged_image_arrays @173
    FREEDIUS_zalloc @174
    LogL10fromY @175
    LogL10toY @176
    LogL16fromY @177
    LogL16toY @178
    LogLuv24fromXYZ @179
    LogLuv24toXYZ @180
    LogLuv32fromXYZ @181
    LogLuv32toXYZ @182
    PrintLastError @183
    TIFFAccessTagMethods @184
    TIFFCIELabToRGBInit @185
    TIFFCIELabToXYZ @186
    TIFFCheckTile @187
    TIFFCheckpointDirectory @188
    TIFFCleanup @189
    TIFFClientOpen @190
    TIFFClientdata @191
    TIFFClose @192
    TIFFComputeStrip @193
    TIFFComputeTile @194
    TIFFCreateDirectory @195
    TIFFCurrentDirOffset @196
    TIFFCurrentDirectory @197
    TIFFCurrentRow @198
    TIFFCurrentStrip @199
    TIFFCurrentTile @200
    TIFFDataWidth @201
    TIFFDefaultDirectory @202
    TIFFDefaultStripSize @203
    TIFFDefaultTileSize @204
    TIFFError @205
    TIFFFaxBlackCodes @206 DATA
    TIFFFaxBlackTable @207 DATA
    TIFFFaxMainTable @208 DATA
    TIFFFaxWhiteCodes @209 DATA
    TIFFFaxWhiteTable @210 DATA
    TIFFFdOpen @211
    TIFFFieldWithName @212
    TIFFFieldWithTag @213
    TIFFFileName @214
    TIFFFileno @215
    TIFFFillStrip @216
    TIFFFillTile @217
    TIFFFindCODEC @218
    TIFFFindFieldInfo @219
    TIFFFindFieldInfoByName @220
    TIFFFlush @221
    TIFFFlushData @222
    TIFFFlushData1 @223
    TIFFFreeDirectory @224
    TIFFGetBitRevTable @225
    TIFFGetClientInfo @226
    TIFFGetCloseProc @227
    TIFFGetConfiguredCODECs @228
    TIFFGetField @229
    TIFFGetFieldDefaulted @230
    TIFFGetField_float_array @231
    TIFFGetField_uint16_array @232
    TIFFGetField_uint32_array @233
    TIFFGetMapFileProc @234
    TIFFGetMode @235
    TIFFGetReadProc @236
    TIFFGetSeekProc @237
    TIFFGetSizeProc @238
    TIFFGetTagListCount @239
    TIFFGetTagListEntry @240
    TIFFGetUnmapFileProc @241
    TIFFGetVersion @242
    TIFFGetWriteProc @243
    TIFFInitCCITTFax3 @244
    TIFFInitCCITTFax4 @245
    TIFFInitCCITTRLE @246
    TIFFInitCCITTRLEW @247
    TIFFInitDumpMode @248
    TIFFInitJPEG @249
    TIFFInitLZW @250
    TIFFInitNeXT @251
    TIFFInitPackBits @252
    TIFFInitPixarLog @253
    TIFFInitSGILog @254
    TIFFInitThunderScan @255
    TIFFInitZIP @256
    TIFFIsBigEndian @257
    TIFFIsByteSwapped @258
    TIFFIsCODECConfigured @259
    TIFFIsMSB2LSB @260
    TIFFIsTiled @261
    TIFFIsUpSampled @262
    TIFFLastDirectory @263
    TIFFMergeFieldInfo @264
    TIFFNumberOfDirectories @265
    TIFFNumberOfStrips @266
    TIFFNumberOfTiles @267
    TIFFOpen @268
    TIFFOpenW @269
    TIFFPredictorInit @270
    TIFFPrintDirectory @271
    TIFFRGBAImageBegin @272
    TIFFRGBAImageEnd @273
    TIFFRGBAImageGet @274
    TIFFRGBAImageOK @275
    TIFFRasterScanlineSize @276
    TIFFRawStripSize @277
    TIFFReadBufferSetup @278
    TIFFReadColormap @279
    TIFFReadDirectory @280
    TIFFReadEncodedStrip @281
    TIFFReadEncodedTile @282
    TIFFReadRGBAImage @283
    TIFFReadRGBAImageOriented @284
    TIFFReadRGBAStrip @285
    TIFFReadRGBATile @286
    TIFFReadRawStrip @287
    TIFFReadRawTile @288
    TIFFReadScanline @289
    TIFFReadTile @290
    TIFFReassignTagToIgnore @291
    TIFFRegisterCODEC @292
    TIFFReverseBits @293
    TIFFRewriteDirectory @294
    TIFFScanlineSize @295
    TIFFSetClientInfo @296
    TIFFSetClientdata @297
    TIFFSetCompressionScheme @298
    TIFFSetDirectory @299
    TIFFSetErrorHandler @300
    TIFFSetField @301
    TIFFSetFileName @302
    TIFFSetFileno @303
    TIFFSetMode @304
    TIFFSetSubDirectory @305
    TIFFSetTagExtender @306
    TIFFSetWarningHandler @307
    TIFFSetWriteOffset @308
    TIFFSetupStrips @309
    TIFFStripSize @310
    TIFFSwabArrayOfDouble @311
    TIFFSwabArrayOfLong @312
    TIFFSwabArrayOfShort @313
    TIFFSwabArrayOfTriples @314
    TIFFSwabDouble @315
    TIFFSwabLong @316
    TIFFSwabShort @317
    TIFFTileRowSize @318
    TIFFTileSize @319
    TIFFUnRegisterCODEC @320
    TIFFUnlinkDirectory @321
    TIFFVGetField @322
    TIFFVGetFieldDefaulted @323
    TIFFVSetField @324
    TIFFVStripSize @325
    TIFFVTileSize @326
    TIFFWarning @327
    TIFFWriteBufferSetup @328
    TIFFWriteCheck @329
    TIFFWriteDirectory @330
    TIFFWriteEncodedStrip @331
    TIFFWriteEncodedTile @332
    TIFFWriteRawStrip @333
    TIFFWriteRawTile @334
    TIFFWriteScanline @335
    TIFFWriteTile @336
    TIFFXYZToRGB @337
    TIFFYCbCrToRGBInit @338
    TIFFYCbCrtoRGB @339
    XYZtoRGB24 @340
    _TIFFBuiltinCODECS @341 DATA
    _TIFFCreateAnonFieldInfo @342
    _TIFFDataSize @343
    _TIFFDefaultStripSize @344
    _TIFFDefaultTileSize @345
    _TIFFFax3fillruns @346
    _TIFFFindOrRegisterFieldInfo @347
    _TIFFNoPostDecode @348
    _TIFFNoPreCode @349
    _TIFFNoRowDecode @350
    _TIFFNoRowEncode @351
    _TIFFNoSeek @352
    _TIFFNoStripDecode @353
    _TIFFNoStripEncode @354
    _TIFFNoTileDecode @355
    _TIFFNoTileEncode @356
    _TIFFPrintFieldInfo @357
    _TIFFSampleToTagType @358
    _TIFFSetDefaultCompressionState @359
    _TIFFSetupFieldInfo @360
    _TIFFSwab16BitData @361
    _TIFFSwab24BitData @362
    _TIFFSwab32BitData @363
    _TIFFSwab64BitData @364
    _TIFFerrorHandler @365 DATA
    _TIFFfree @366
    _TIFFgetMode @367
    _TIFFmalloc @368
    _TIFFmemcmp @369
    _TIFFmemcpy @370
    _TIFFmemset @371
    _TIFFprintAscii @372
    _TIFFprintAsciiTag @373
    _TIFFrealloc @374
    _TIFFsetByteArray @375
    _TIFFsetDoubleArray @376
    _TIFFsetFloatArray @377
    _TIFFsetLongArray @378
    _TIFFsetNString @379
    _TIFFsetShortArray @380
    _TIFFsetString @381
    _TIFFwarningHandler @382 DATA
    _Z14TIFFStreamOpenPKcPSi @383
    _Z14TIFFStreamOpenPKcPSo @384
    _ZN8FREEDIUS10GAUSS_CONVEddddddi @385
    _ZN8FREEDIUS10check_cmapEPNS_10RGB8_PIXELEi @386
    _ZN8FREEDIUS10lab_to_rgbEPiS0_ @387
    _ZN8FREEDIUS10load_imageEPci @388
    _ZN8FREEDIUS10make_imageEiiNS_22__image_element_type__Eiiii @389
    _ZN8FREEDIUS10page_queueC1Ev @390
    _ZN8FREEDIUS10page_queueC2Ev @391
    _ZN8FREEDIUS10qcmebindirEv @392
    _ZN8FREEDIUS10rgb_to_labEPiS0_ @393
    _ZN8FREEDIUS10save_imageEPNS_5imageEPci @394
    _ZN8FREEDIUS10setup_pageEPNS_8page_mapEiPNS_16page_queue_entryE @395
    _ZN8FREEDIUS10write_pageEPNS_18basic_page_handlerEi @396
    _ZN8FREEDIUS10write_pageEPNS_23file_image_page_handlerEi @397
    _ZN8FREEDIUS10y_to_lstarEdd @398
    _ZN8FREEDIUS11array_imageIcE7getlineEPdiiiiii @399
    _ZN8FREEDIUS11array_imageIcE7getlineEPfiiiiii @400
    _ZN8FREEDIUS11array_imageIcE7getlineEPiiiiiii @401
    _ZN8FREEDIUS11array_imageIcE7putlineEPdiiiii @402
    _ZN8FREEDIUS11array_imageIcE7putlineEPfiiiii @403
    _ZN8FREEDIUS11array_imageIcE7putlineEPiiiiii @404
    _ZN8FREEDIUS11array_imageIcE9getcolumnEPdiiiiii @405
    _ZN8FREEDIUS11array_imageIcE9getcolumnEPfiiiiii @406
    _ZN8FREEDIUS11array_imageIcE9getcolumnEPiiiiiii @407
    _ZN8FREEDIUS11array_imageIcE9putcolumnEPdiiiii @408
    _ZN8FREEDIUS11array_imageIcE9putcolumnEPfiiiii @409
    _ZN8FREEDIUS11array_imageIcE9putcolumnEPiiiiii @410
    _ZN8FREEDIUS11array_imageIdE11image_arrayEv @411
    _ZN8FREEDIUS11array_imageIdE12element_typeEv @412
    _ZN8FREEDIUS11array_imageIdE14get_image_tileEii @413
    _ZN8FREEDIUS11array_imageIdE15set_image_arrayEPv @414
    _ZN8FREEDIUS11array_imageIdE16interpolate_irefEdd @415
    _ZN8FREEDIUS11array_imageIdE4irefEii @416
    _ZN8FREEDIUS11array_imageIdE4isetEiid @417
    _ZN8FREEDIUS11array_imageIdE4isetEiii @418
    _ZN8FREEDIUS11array_imageIdE5direfEii @419
    _ZN8FREEDIUS11array_imageIdE7getlineEPdiiiiii @420
    _ZN8FREEDIUS11array_imageIdE7getlineEPfiiiiii @421
    _ZN8FREEDIUS11array_imageIdE7getlineEPiiiiiii @422
    _ZN8FREEDIUS11array_imageIdE7getlineEPviiiiii @423
    _ZN8FREEDIUS11array_imageIdE7putlineEPdiiiii @424
    _ZN8FREEDIUS11array_imageIdE7putlineEPfiiiii @425
    _ZN8FREEDIUS11array_imageIdE7putlineEPiiiiii @426
    _ZN8FREEDIUS11array_imageIdE7putlineEPviiiii @427
    _ZN8FREEDIUS11array_imageIdE9getcolumnEPdiiiiii @428
    _ZN8FREEDIUS11array_imageIdE9getcolumnEPfiiiiii @429
    _ZN8FREEDIUS11array_imageIdE9getcolumnEPiiiiiii @430
    _ZN8FREEDIUS11array_imageIdE9putcolumnEPdiiiii @431
    _ZN8FREEDIUS11array_imageIdE9putcolumnEPfiiiii @432
    _ZN8FREEDIUS11array_imageIdE9putcolumnEPiiiiii @433
    _ZN8FREEDIUS11array_imageIfE11image_arrayEv @434
    _ZN8FREEDIUS11array_imageIfE12element_typeEv @435
    _ZN8FREEDIUS11array_imageIfE14get_image_tileEii @436
    _ZN8FREEDIUS11array_imageIfE15set_image_arrayEPv @437
    _ZN8FREEDIUS11array_imageIfE16interpolate_irefEdd @438
    _ZN8FREEDIUS11array_imageIfE4irefEii @439
    _ZN8FREEDIUS11array_imageIfE4isetEiid @440
    _ZN8FREEDIUS11array_imageIfE4isetEiii @441
    _ZN8FREEDIUS11array_imageIfE5direfEii @442
    _ZN8FREEDIUS11array_imageIfE7getlineEPdiiiiii @443
    _ZN8FREEDIUS11array_imageIfE7getlineEPfiiiiii @444
    _ZN8FREEDIUS11array_imageIfE7getlineEPiiiiiii @445
    _ZN8FREEDIUS11array_imageIfE7getlineEPviiiiii @446
    _ZN8FREEDIUS11array_imageIfE7putlineEPdiiiii @447
    _ZN8FREEDIUS11array_imageIfE7putlineEPfiiiii @448
    _ZN8FREEDIUS11array_imageIfE7putlineEPiiiiii @449
    _ZN8FREEDIUS11array_imageIfE7putlineEPviiiii @450
    _ZN8FREEDIUS11array_imageIfE9getcolumnEPdiiiiii @451
    _ZN8FREEDIUS11array_imageIfE9getcolumnEPfiiiiii @452
    _ZN8FREEDIUS11array_imageIfE9getcolumnEPiiiiiii @453
    _ZN8FREEDIUS11array_imageIfE9putcolumnEPdiiiii @454
    _ZN8FREEDIUS11array_imageIfE9putcolumnEPfiiiii @455
    _ZN8FREEDIUS11array_imageIfE9putcolumnEPiiiiii @456
    _ZN8FREEDIUS11array_imageIhE11image_arrayEv @457
    _ZN8FREEDIUS11array_imageIhE12element_typeEv @458
    _ZN8FREEDIUS11array_imageIhE14get_image_tileEii @459
    _ZN8FREEDIUS11array_imageIhE15set_image_arrayEPv @460
    _ZN8FREEDIUS11array_imageIhE16interpolate_irefEdd @461
    _ZN8FREEDIUS11array_imageIhE4irefEii @462
    _ZN8FREEDIUS11array_imageIhE4isetEiid @463
    _ZN8FREEDIUS11array_imageIhE4isetEiii @464
    _ZN8FREEDIUS11array_imageIhE5direfEii @465
    _ZN8FREEDIUS11array_imageIhE7getlineEPdiiiiii @466
    _ZN8FREEDIUS11array_imageIhE7getlineEPfiiiiii @467
    _ZN8FREEDIUS11array_imageIhE7getlineEPiiiiiii @468
    _ZN8FREEDIUS11array_imageIhE7getlineEPviiiiii @469
    _ZN8FREEDIUS11array_imageIhE7putlineEPdiiiii @470
    _ZN8FREEDIUS11array_imageIhE7putlineEPfiiiii @471
    _ZN8FREEDIUS11array_imageIhE7putlineEPiiiiii @472
    _ZN8FREEDIUS11array_imageIhE7putlineEPviiiii @473
    _ZN8FREEDIUS11array_imageIhE9getcolumnEPdiiiiii @474
    _ZN8FREEDIUS11array_imageIhE9getcolumnEPfiiiiii @475
    _ZN8FREEDIUS11array_imageIhE9getcolumnEPiiiiiii @476
    _ZN8FREEDIUS11array_imageIhE9putcolumnEPdiiiii @477
    _ZN8FREEDIUS11array_imageIhE9putcolumnEPfiiiii @478
    _ZN8FREEDIUS11array_imageIhE9putcolumnEPiiiiii @479
    _ZN8FREEDIUS11array_imageIiE11image_arrayEv @480
    _ZN8FREEDIUS11array_imageIiE12element_typeEv @481
    _ZN8FREEDIUS11array_imageIiE14get_image_tileEii @482
    _ZN8FREEDIUS11array_imageIiE15set_image_arrayEPv @483
    _ZN8FREEDIUS11array_imageIiE16interpolate_irefEdd @484
    _ZN8FREEDIUS11array_imageIiE4irefEii @485
    _ZN8FREEDIUS11array_imageIiE4isetEiid @486
    _ZN8FREEDIUS11array_imageIiE4isetEiii @487
    _ZN8FREEDIUS11array_imageIiE5direfEii @488
    _ZN8FREEDIUS11array_imageIiE7getlineEPdiiiiii @489
    _ZN8FREEDIUS11array_imageIiE7getlineEPfiiiiii @490
    _ZN8FREEDIUS11array_imageIiE7getlineEPiiiiiii @491
    _ZN8FREEDIUS11array_imageIiE7getlineEPviiiiii @492
    _ZN8FREEDIUS11array_imageIiE7putlineEPdiiiii @493
    _ZN8FREEDIUS11array_imageIiE7putlineEPfiiiii @494
    _ZN8FREEDIUS11array_imageIiE7putlineEPiiiiii @495
    _ZN8FREEDIUS11array_imageIiE7putlineEPviiiii @496
    _ZN8FREEDIUS11array_imageIiE9getcolumnEPdiiiiii @497
    _ZN8FREEDIUS11array_imageIiE9getcolumnEPfiiiiii @498
    _ZN8FREEDIUS11array_imageIiE9getcolumnEPiiiiiii @499
    _ZN8FREEDIUS11array_imageIiE9putcolumnEPdiiiii @500
    _ZN8FREEDIUS11array_imageIiE9putcolumnEPfiiiii @501
    _ZN8FREEDIUS11array_imageIiE9putcolumnEPiiiiii @502
    _ZN8FREEDIUS11array_imageIjE11image_arrayEv @503
    _ZN8FREEDIUS11array_imageIjE12element_typeEv @504
    _ZN8FREEDIUS11array_imageIjE14get_image_tileEii @505
    _ZN8FREEDIUS11array_imageIjE15set_image_arrayEPv @506
    _ZN8FREEDIUS11array_imageIjE16interpolate_irefEdd @507
    _ZN8FREEDIUS11array_imageIjE4irefEii @508
    _ZN8FREEDIUS11array_imageIjE4isetEiid @509
    _ZN8FREEDIUS11array_imageIjE4isetEiii @510
    _ZN8FREEDIUS11array_imageIjE5direfEii @511
    _ZN8FREEDIUS11array_imageIjE7getlineEPdiiiiii @512
    _ZN8FREEDIUS11array_imageIjE7getlineEPfiiiiii @513
    _ZN8FREEDIUS11array_imageIjE7getlineEPiiiiiii @514
    _ZN8FREEDIUS11array_imageIjE7getlineEPviiiiii @515
    _ZN8FREEDIUS11array_imageIjE7putlineEPdiiiii @516
    _ZN8FREEDIUS11array_imageIjE7putlineEPfiiiii @517
    _ZN8FREEDIUS11array_imageIjE7putlineEPiiiiii @518
    _ZN8FREEDIUS11array_imageIjE7putlineEPviiiii @519
    _ZN8FREEDIUS11array_imageIjE9getcolumnEPdiiiiii @520
    _ZN8FREEDIUS11array_imageIjE9getcolumnEPfiiiiii @521
    _ZN8FREEDIUS11array_imageIjE9getcolumnEPiiiiiii @522
    _ZN8FREEDIUS11array_imageIjE9putcolumnEPdiiiii @523
    _ZN8FREEDIUS11array_imageIjE9putcolumnEPfiiiii @524
    _ZN8FREEDIUS11array_imageIjE9putcolumnEPiiiiii @525
    _ZN8FREEDIUS11array_imageIsE11image_arrayEv @526
    _ZN8FREEDIUS11array_imageIsE12element_typeEv @527
    _ZN8FREEDIUS11array_imageIsE14get_image_tileEii @528
    _ZN8FREEDIUS11array_imageIsE15set_image_arrayEPv @529
    _ZN8FREEDIUS11array_imageIsE16interpolate_irefEdd @530
    _ZN8FREEDIUS11array_imageIsE4irefEii @531
    _ZN8FREEDIUS11array_imageIsE4isetEiid @532
    _ZN8FREEDIUS11array_imageIsE4isetEiii @533
    _ZN8FREEDIUS11array_imageIsE5direfEii @534
    _ZN8FREEDIUS11array_imageIsE7getlineEPdiiiiii @535
    _ZN8FREEDIUS11array_imageIsE7getlineEPfiiiiii @536
    _ZN8FREEDIUS11array_imageIsE7getlineEPiiiiiii @537
    _ZN8FREEDIUS11array_imageIsE7getlineEPviiiiii @538
    _ZN8FREEDIUS11array_imageIsE7putlineEPdiiiii @539
    _ZN8FREEDIUS11array_imageIsE7putlineEPfiiiii @540
    _ZN8FREEDIUS11array_imageIsE7putlineEPiiiiii @541
    _ZN8FREEDIUS11array_imageIsE7putlineEPviiiii @542
    _ZN8FREEDIUS11array_imageIsE9getcolumnEPdiiiiii @543
    _ZN8FREEDIUS11array_imageIsE9getcolumnEPfiiiiii @544
    _ZN8FREEDIUS11array_imageIsE9getcolumnEPiiiiiii @545
    _ZN8FREEDIUS11array_imageIsE9putcolumnEPdiiiii @546
    _ZN8FREEDIUS11array_imageIsE9putcolumnEPfiiiii @547
    _ZN8FREEDIUS11array_imageIsE9putcolumnEPiiiiii @548
    _ZN8FREEDIUS11array_imageItE11image_arrayEv @549
    _ZN8FREEDIUS11array_imageItE12element_typeEv @550
    _ZN8FREEDIUS11array_imageItE14get_image_tileEii @551
    _ZN8FREEDIUS11array_imageItE15set_image_arrayEPv @552
    _ZN8FREEDIUS11array_imageItE16interpolate_irefEdd @553
    _ZN8FREEDIUS11array_imageItE4irefEii @554
    _ZN8FREEDIUS11array_imageItE4isetEiid @555
    _ZN8FREEDIUS11array_imageItE4isetEiii @556
    _ZN8FREEDIUS11array_imageItE5direfEii @557
    _ZN8FREEDIUS11array_imageItE7getlineEPdiiiiii @558
    _ZN8FREEDIUS11array_imageItE7getlineEPfiiiiii @559
    _ZN8FREEDIUS11array_imageItE7getlineEPiiiiiii @560
    _ZN8FREEDIUS11array_imageItE7getlineEPviiiiii @561
    _ZN8FREEDIUS11array_imageItE7putlineEPdiiiii @562
    _ZN8FREEDIUS11array_imageItE7putlineEPfiiiii @563
    _ZN8FREEDIUS11array_imageItE7putlineEPiiiiii @564
    _ZN8FREEDIUS11array_imageItE7putlineEPviiiii @565
    _ZN8FREEDIUS11array_imageItE9getcolumnEPdiiiiii @566
    _ZN8FREEDIUS11array_imageItE9getcolumnEPfiiiiii @567
    _ZN8FREEDIUS11array_imageItE9getcolumnEPiiiiiii @568
    _ZN8FREEDIUS11array_imageItE9putcolumnEPdiiiii @569
    _ZN8FREEDIUS11array_imageItE9putcolumnEPfiiiii @570
    _ZN8FREEDIUS11array_imageItE9putcolumnEPiiiiii @571
    _ZN8FREEDIUS11assign_pageEPNS_9page_poolEPNS_16page_queue_entryEPNS_18basic_page_handlerEi @572
    _ZN8FREEDIUS11paged_imageIcE15example_elementE @573 DATA
    _ZN8FREEDIUS11paged_imageIcE7getlineEPdiiiiii @574
    _ZN8FREEDIUS11paged_imageIcE7getlineEPfiiiiii @575
    _ZN8FREEDIUS11paged_imageIcE7getlineEPiiiiiii @576
    _ZN8FREEDIUS11paged_imageIcE7putlineEPdiiiii @577
    _ZN8FREEDIUS11paged_imageIcE7putlineEPfiiiii @578
    _ZN8FREEDIUS11paged_imageIcE7putlineEPiiiiii @579
    _ZN8FREEDIUS11paged_imageIcE9getcolumnEPdiiiiii @580
    _ZN8FREEDIUS11paged_imageIcE9getcolumnEPfiiiiii @581
    _ZN8FREEDIUS11paged_imageIcE9getcolumnEPiiiiiii @582
    _ZN8FREEDIUS11paged_imageIcE9putcolumnEPdiiiii @583
    _ZN8FREEDIUS11paged_imageIcE9putcolumnEPfiiiii @584
    _ZN8FREEDIUS11paged_imageIcE9putcolumnEPiiiiii @585
    _ZN8FREEDIUS11paged_imageIdE12element_typeEv @586
    _ZN8FREEDIUS11paged_imageIdE15example_elementE @587 DATA
    _ZN8FREEDIUS11paged_imageIdE16interpolate_irefEdd @588
    _ZN8FREEDIUS11paged_imageIdE4irefEii @589
    _ZN8FREEDIUS11paged_imageIdE4isetEiid @590
    _ZN8FREEDIUS11paged_imageIdE4isetEiii @591
    _ZN8FREEDIUS11paged_imageIdE5direfEii @592
    _ZN8FREEDIUS11paged_imageIdE7getlineEPdiiiiii @593
    _ZN8FREEDIUS11paged_imageIdE7getlineEPfiiiiii @594
    _ZN8FREEDIUS11paged_imageIdE7getlineEPiiiiiii @595
    _ZN8FREEDIUS11paged_imageIdE7putlineEPdiiiii @596
    _ZN8FREEDIUS11paged_imageIdE7putlineEPfiiiii @597
    _ZN8FREEDIUS11paged_imageIdE7putlineEPiiiiii @598
    _ZN8FREEDIUS11paged_imageIdE9getcolumnEPdiiiiii @599
    _ZN8FREEDIUS11paged_imageIdE9getcolumnEPfiiiiii @600
    _ZN8FREEDIUS11paged_imageIdE9getcolumnEPiiiiiii @601
    _ZN8FREEDIUS11paged_imageIdE9putcolumnEPdiiiii @602
    _ZN8FREEDIUS11paged_imageIdE9putcolumnEPfiiiii @603
    _ZN8FREEDIUS11paged_imageIdE9putcolumnEPiiiiii @604
    _ZN8FREEDIUS11paged_imageIfE12element_typeEv @605
    _ZN8FREEDIUS11paged_imageIfE15example_elementE @606 DATA
    _ZN8FREEDIUS11paged_imageIfE16interpolate_irefEdd @607
    _ZN8FREEDIUS11paged_imageIfE4irefEii @608
    _ZN8FREEDIUS11paged_imageIfE4isetEiid @609
    _ZN8FREEDIUS11paged_imageIfE4isetEiii @610
    _ZN8FREEDIUS11paged_imageIfE5direfEii @611
    _ZN8FREEDIUS11paged_imageIfE7getlineEPdiiiiii @612
    _ZN8FREEDIUS11paged_imageIfE7getlineEPfiiiiii @613
    _ZN8FREEDIUS11paged_imageIfE7getlineEPiiiiiii @614
    _ZN8FREEDIUS11paged_imageIfE7putlineEPdiiiii @615
    _ZN8FREEDIUS11paged_imageIfE7putlineEPfiiiii @616
    _ZN8FREEDIUS11paged_imageIfE7putlineEPiiiiii @617
    _ZN8FREEDIUS11paged_imageIfE9getcolumnEPdiiiiii @618
    _ZN8FREEDIUS11paged_imageIfE9getcolumnEPfiiiiii @619
    _ZN8FREEDIUS11paged_imageIfE9getcolumnEPiiiiiii @620
    _ZN8FREEDIUS11paged_imageIfE9putcolumnEPdiiiii @621
    _ZN8FREEDIUS11paged_imageIfE9putcolumnEPfiiiii @622
    _ZN8FREEDIUS11paged_imageIfE9putcolumnEPiiiiii @623
    _ZN8FREEDIUS11paged_imageIhE12element_typeEv @624
    _ZN8FREEDIUS11paged_imageIhE15example_elementE @625 DATA
    _ZN8FREEDIUS11paged_imageIhE16interpolate_irefEdd @626
    _ZN8FREEDIUS11paged_imageIhE4irefEii @627
    _ZN8FREEDIUS11paged_imageIhE4isetEiid @628
    _ZN8FREEDIUS11paged_imageIhE4isetEiii @629
    _ZN8FREEDIUS11paged_imageIhE5direfEii @630
    _ZN8FREEDIUS11paged_imageIhE7getlineEPdiiiiii @631
    _ZN8FREEDIUS11paged_imageIhE7getlineEPfiiiiii @632
    _ZN8FREEDIUS11paged_imageIhE7getlineEPiiiiiii @633
    _ZN8FREEDIUS11paged_imageIhE7putlineEPdiiiii @634
    _ZN8FREEDIUS11paged_imageIhE7putlineEPfiiiii @635
    _ZN8FREEDIUS11paged_imageIhE7putlineEPiiiiii @636
    _ZN8FREEDIUS11paged_imageIhE9getcolumnEPdiiiiii @637
    _ZN8FREEDIUS11paged_imageIhE9getcolumnEPfiiiiii @638
    _ZN8FREEDIUS11paged_imageIhE9getcolumnEPiiiiiii @639
    _ZN8FREEDIUS11paged_imageIhE9putcolumnEPdiiiii @640
    _ZN8FREEDIUS11paged_imageIhE9putcolumnEPfiiiii @641
    _ZN8FREEDIUS11paged_imageIhE9putcolumnEPiiiiii @642
    _ZN8FREEDIUS11paged_imageIiE12element_typeEv @643
    _ZN8FREEDIUS11paged_imageIiE15example_elementE @644 DATA
    _ZN8FREEDIUS11paged_imageIiE16interpolate_irefEdd @645
    _ZN8FREEDIUS11paged_imageIiE4irefEii @646
    _ZN8FREEDIUS11paged_imageIiE4isetEiid @647
    _ZN8FREEDIUS11paged_imageIiE4isetEiii @648
    _ZN8FREEDIUS11paged_imageIiE5direfEii @649
    _ZN8FREEDIUS11paged_imageIiE7getlineEPdiiiiii @650
    _ZN8FREEDIUS11paged_imageIiE7getlineEPfiiiiii @651
    _ZN8FREEDIUS11paged_imageIiE7getlineEPiiiiiii @652
    _ZN8FREEDIUS11paged_imageIiE7putlineEPdiiiii @653
    _ZN8FREEDIUS11paged_imageIiE7putlineEPfiiiii @654
    _ZN8FREEDIUS11paged_imageIiE7putlineEPiiiiii @655
    _ZN8FREEDIUS11paged_imageIiE9getcolumnEPdiiiiii @656
    _ZN8FREEDIUS11paged_imageIiE9getcolumnEPfiiiiii @657
    _ZN8FREEDIUS11paged_imageIiE9getcolumnEPiiiiiii @658
    _ZN8FREEDIUS11paged_imageIiE9putcolumnEPdiiiii @659
    _ZN8FREEDIUS11paged_imageIiE9putcolumnEPfiiiii @660
    _ZN8FREEDIUS11paged_imageIiE9putcolumnEPiiiiii @661
    _ZN8FREEDIUS11paged_imageIjE12element_typeEv @662
    _ZN8FREEDIUS11paged_imageIjE15example_elementE @663 DATA
    _ZN8FREEDIUS11paged_imageIjE16interpolate_irefEdd @664
    _ZN8FREEDIUS11paged_imageIjE4irefEii @665
    _ZN8FREEDIUS11paged_imageIjE4isetEiid @666
    _ZN8FREEDIUS11paged_imageIjE4isetEiii @667
    _ZN8FREEDIUS11paged_imageIjE5direfEii @668
    _ZN8FREEDIUS11paged_imageIjE7getlineEPdiiiiii @669
    _ZN8FREEDIUS11paged_imageIjE7getlineEPfiiiiii @670
    _ZN8FREEDIUS11paged_imageIjE7getlineEPiiiiiii @671
    _ZN8FREEDIUS11paged_imageIjE7putlineEPdiiiii @672
    _ZN8FREEDIUS11paged_imageIjE7putlineEPfiiiii @673
    _ZN8FREEDIUS11paged_imageIjE7putlineEPiiiiii @674
    _ZN8FREEDIUS11paged_imageIjE9getcolumnEPdiiiiii @675
    _ZN8FREEDIUS11paged_imageIjE9getcolumnEPfiiiiii @676
    _ZN8FREEDIUS11paged_imageIjE9getcolumnEPiiiiiii @677
    _ZN8FREEDIUS11paged_imageIjE9putcolumnEPdiiiii @678
    _ZN8FREEDIUS11paged_imageIjE9putcolumnEPfiiiii @679
    _ZN8FREEDIUS11paged_imageIjE9putcolumnEPiiiiii @680
    _ZN8FREEDIUS11paged_imageIsE12element_typeEv @681
    _ZN8FREEDIUS11paged_imageIsE15example_elementE @682 DATA
    _ZN8FREEDIUS11paged_imageIsE16interpolate_irefEdd @683
    _ZN8FREEDIUS11paged_imageIsE4irefEii @684
    _ZN8FREEDIUS11paged_imageIsE4isetEiid @685
    _ZN8FREEDIUS11paged_imageIsE4isetEiii @686
    _ZN8FREEDIUS11paged_imageIsE5direfEii @687
    _ZN8FREEDIUS11paged_imageIsE7getlineEPdiiiiii @688
    _ZN8FREEDIUS11paged_imageIsE7getlineEPfiiiiii @689
    _ZN8FREEDIUS11paged_imageIsE7getlineEPiiiiiii @690
    _ZN8FREEDIUS11paged_imageIsE7putlineEPdiiiii @691
    _ZN8FREEDIUS11paged_imageIsE7putlineEPfiiiii @692
    _ZN8FREEDIUS11paged_imageIsE7putlineEPiiiiii @693
    _ZN8FREEDIUS11paged_imageIsE9getcolumnEPdiiiiii @694
    _ZN8FREEDIUS11paged_imageIsE9getcolumnEPfiiiiii @695
    _ZN8FREEDIUS11paged_imageIsE9getcolumnEPiiiiiii @696
    _ZN8FREEDIUS11paged_imageIsE9putcolumnEPdiiiii @697
    _ZN8FREEDIUS11paged_imageIsE9putcolumnEPfiiiii @698
    _ZN8FREEDIUS11paged_imageIsE9putcolumnEPiiiiii @699
    _ZN8FREEDIUS11paged_imageItE12element_typeEv @700
    _ZN8FREEDIUS11paged_imageItE15example_elementE @701 DATA
    _ZN8FREEDIUS11paged_imageItE16interpolate_irefEdd @702
    _ZN8FREEDIUS11paged_imageItE4irefEii @703
    _ZN8FREEDIUS11paged_imageItE4isetEiid @704
    _ZN8FREEDIUS11paged_imageItE4isetEiii @705
    _ZN8FREEDIUS11paged_imageItE5direfEii @706
    _ZN8FREEDIUS11paged_imageItE7getlineEPdiiiiii @707
    _ZN8FREEDIUS11paged_imageItE7getlineEPfiiiiii @708
    _ZN8FREEDIUS11paged_imageItE7getlineEPiiiiiii @709
    _ZN8FREEDIUS11paged_imageItE7putlineEPdiiiii @710
    _ZN8FREEDIUS11paged_imageItE7putlineEPfiiiii @711
    _ZN8FREEDIUS11paged_imageItE7putlineEPiiiiii @712
    _ZN8FREEDIUS11paged_imageItE9getcolumnEPdiiiiii @713
    _ZN8FREEDIUS11paged_imageItE9getcolumnEPfiiiiii @714
    _ZN8FREEDIUS11paged_imageItE9getcolumnEPiiiiiii @715
    _ZN8FREEDIUS11paged_imageItE9putcolumnEPdiiiii @716
    _ZN8FREEDIUS11paged_imageItE9putcolumnEPfiiiii @717
    _ZN8FREEDIUS11paged_imageItE9putcolumnEPiiiiii @718
    _ZN8FREEDIUS11pager_debugE @719 DATA
    _ZN8FREEDIUS11unlock_pageEPNS_8page_mapEi @720
    _ZN8FREEDIUS12add_page_mapEPNS_9page_poolEPNS_8page_mapE @721
    _ZN8FREEDIUS12elapsed_timeEP7timeval @722
    _ZN8FREEDIUS12galloc_pagesE @723 DATA
    _ZN8FREEDIUS12get_int_propEPNS_19pointer_list_structEPKci @724
    _ZN8FREEDIUS12gettimeofdayEP7timevalP8timezone @725
    _ZN8FREEDIUS12give_up_pageEPNS_18basic_page_handlerEi @726
    _ZN8FREEDIUS12jpeg_mem_srcEP22jpeg_decompress_structPhi @727
    _ZN8FREEDIUS12mapped_imageC1EiiNS_22__image_element_type__E @728
    _ZN8FREEDIUS12mapped_imageC2EiiNS_22__image_element_type__E @729
    _ZN8FREEDIUS12put_int_propEPPNS_19pointer_list_structEPKci @730
    _ZN8FREEDIUS12reload_imageEPcPNS_5imageEi @731
    _ZN8FREEDIUS13block_size_okEi @732
    _ZN8FREEDIUS13copy_colormapEPPti @733
    _ZN8FREEDIUS13free_page_mapEPNS_8page_mapE @734
    _ZN8FREEDIUS13get_page_poolEii @735
    _ZN8FREEDIUS13get_prop_slotEPNS_19pointer_list_structEPKc @736
    _ZN8FREEDIUS13image_getlineEPNS_5imageENS_22__image_element_type__EPviiiiii @737
    _ZN8FREEDIUS13image_putlineEPNS_5imageENS_22__image_element_type__EPviiiii @738
    _ZN8FREEDIUS13jpeg_mem_destEP20jpeg_compress_structPhi @739
    _ZN8FREEDIUS13make_colormapEi @740
    _ZN8FREEDIUS13make_image_fnE @741 DATA
    _ZN8FREEDIUS13release_pagesEPNS_16paged_image_baseE @742
    _ZN8FREEDIUS14balance_queuesEPNS_9page_poolE @743
    _ZN8FREEDIUS14bytes_per_tileEPNS_20blocked_mapped_imageE @744
    _ZN8FREEDIUS14describe_imageEPNS_20blocked_mapped_imageE @745
    _ZN8FREEDIUS14get_float_propEPNS_19pointer_list_structEPKcf @746
    _ZN8FREEDIUS14get_image_tileEPNS_20blocked_mapped_imageEii @747
    _ZN8FREEDIUS14jpeg_mem_errnoEv @748
    _ZN8FREEDIUS14local_hostnameEv @749
    _ZN8FREEDIUS14machine_endianEv @750
    _ZN8FREEDIUS14put_float_propEPPNS_19pointer_list_structEPKcf @751
    _ZN8FREEDIUS14set_whitepointEddd @752
    _ZN8FREEDIUS14swap_endian_16EPti @753
    _ZN8FREEDIUS14swap_endian_32EPji @754
    _ZN8FREEDIUS14validate_queueEPNS_10page_queueEPKcS3_PNS_8page_mapE @755
    _ZN8FREEDIUS15copy_pixel_leftENS_22__image_element_type__EPvii @756
    _ZN8FREEDIUS15image_getcolumnEPNS_5imageENS_22__image_element_type__EPviiiiii @757
    _ZN8FREEDIUS15image_page_pool14free_page_dataEPNS_16page_queue_entryE @758
    _ZN8FREEDIUS15image_page_pool20new_page_queue_entryEv @759
    _ZN8FREEDIUS15image_page_pool8describeEP6_iobuf @760
    _ZN8FREEDIUS15image_page_poolC1Eii @761
    _ZN8FREEDIUS15image_page_poolC2Eii @762
    _ZN8FREEDIUS15image_putcolumnEPNS_5imageENS_22__image_element_type__EPviiiii @763
    _ZN8FREEDIUS15make_file_imageEiiNS_22__image_element_type__EiiiiPc @764
    _ZN8FREEDIUS15make_lazy_imageEiiNS_22__image_element_type__EPNS_23lazy_image_page_handlerEii @765
    _ZN8FREEDIUS15make_page_queueEv @766
    _ZN8FREEDIUS15page_pool_statsEPNS_9page_poolEi @767
    _ZN8FREEDIUS15qcmebindir_pathE @768 DATA
    _ZN8FREEDIUS15read_int_field8EPc @769
    _ZN8FREEDIUS15rejuvenate_pageEPNS_8page_mapEPNS_16page_queue_entryE @770
    _ZN8FREEDIUS15save_jpeg_imageEPNS_5imageEPci @771
    _ZN8FREEDIUS15setErrorHandlerEPFvPKcPcE @772
    _ZN8FREEDIUS15validate_queuesEPNS_9page_poolEPKcPNS_8page_mapE @773
    _ZN8FREEDIUS16add_image_headerEPNS_18basic_image_headerE @774
    _ZN8FREEDIUS16array_getlinecolINS_11array_imageIcEEcdEEiPT_PT0_PjjPT1_iii @775
    _ZN8FREEDIUS16array_getlinecolINS_11array_imageIcEEcfEEiPT_PT0_PjjPT1_iii @776
    _ZN8FREEDIUS16array_getlinecolINS_11array_imageIcEEciEEiPT_PT0_PjjPT1_iii @777
    _ZN8FREEDIUS16array_getlinecolINS_11array_imageIdEEddEEiPT_PT0_PjjPT1_iii @778
    _ZN8FREEDIUS16array_getlinecolINS_11array_imageIdEEdfEEiPT_PT0_PjjPT1_iii @779
    _ZN8FREEDIUS16array_getlinecolINS_11array_imageIdEEdiEEiPT_PT0_PjjPT1_iii @780
    _ZN8FREEDIUS16array_getlinecolINS_11array_imageIfEEfdEEiPT_PT0_PjjPT1_iii @781
    _ZN8FREEDIUS16array_getlinecolINS_11array_imageIfEEffEEiPT_PT0_PjjPT1_iii @782
    _ZN8FREEDIUS16array_getlinecolINS_11array_imageIfEEfiEEiPT_PT0_PjjPT1_iii @783
    _ZN8FREEDIUS16array_getlinecolINS_11array_imageIhEEhdEEiPT_PT0_PjjPT1_iii @784
    _ZN8FREEDIUS16array_getlinecolINS_11array_imageIhEEhfEEiPT_PT0_PjjPT1_iii @785
    _ZN8FREEDIUS16array_getlinecolINS_11array_imageIhEEhhEEiPT_PT0_PjjPT1_iii @786
    _ZN8FREEDIUS16array_getlinecolINS_11array_imageIhEEhiEEiPT_PT0_PjjPT1_iii @787
    _ZN8FREEDIUS16array_getlinecolINS_11array_imageIiEEidEEiPT_PT0_PjjPT1_iii @788
    _ZN8FREEDIUS16array_getlinecolINS_11array_imageIiEEifEEiPT_PT0_PjjPT1_iii @789
    _ZN8FREEDIUS16array_getlinecolINS_11array_imageIiEEiiEEiPT_PT0_PjjPT1_iii @790
    _ZN8FREEDIUS16array_getlinecolINS_11array_imageIjEEjdEEiPT_PT0_PjjPT1_iii @791
    _ZN8FREEDIUS16array_getlinecolINS_11array_imageIjEEjfEEiPT_PT0_PjjPT1_iii @792
    _ZN8FREEDIUS16array_getlinecolINS_11array_imageIjEEjiEEiPT_PT0_PjjPT1_iii @793
    _ZN8FREEDIUS16array_getlinecolINS_11array_imageIsEEsdEEiPT_PT0_PjjPT1_iii @794
    _ZN8FREEDIUS16array_getlinecolINS_11array_imageIsEEsfEEiPT_PT0_PjjPT1_iii @795
    _ZN8FREEDIUS16array_getlinecolINS_11array_imageIsEEsiEEiPT_PT0_PjjPT1_iii @796
    _ZN8FREEDIUS16array_getlinecolINS_11array_imageIsEEssEEiPT_PT0_PjjPT1_iii @797
    _ZN8FREEDIUS16array_getlinecolINS_11array_imageItEEtdEEiPT_PT0_PjjPT1_iii @798
    _ZN8FREEDIUS16array_getlinecolINS_11array_imageItEEtfEEiPT_PT0_PjjPT1_iii @799
    _ZN8FREEDIUS16array_getlinecolINS_11array_imageItEEthEEiPT_PT0_PjjPT1_iii @800
    _ZN8FREEDIUS16array_getlinecolINS_11array_imageItEEtiEEiPT_PT0_PjjPT1_iii @801
    _ZN8FREEDIUS16array_getlinecolINS_11array_imageItEEttEEiPT_PT0_PjjPT1_iii @802
    _ZN8FREEDIUS16array_getlinecolINS_28band_interleaved_array_imageINS_10RGB8_PIXELEEES2_S2_EEiPT_PT0_PjjPT1_iii @803
    _ZN8FREEDIUS16array_getlinecolINS_28band_interleaved_array_imageINS_11RGBA8_PIXELEEES2_S2_EEiPT_PT0_PjjPT1_iii @804
    _ZN8FREEDIUS16array_image_base10class_codeEv @805
    _ZN8FREEDIUS16array_image_base10save_imageEPci @806
    _ZN8FREEDIUS16array_image_base11image_arrayEv @807
    _ZN8FREEDIUS16array_image_base14get_image_tileEii @808
    _ZN8FREEDIUS16array_image_base15set_image_arrayEPv @809
    _ZN8FREEDIUS16array_image_base16iref_page_numberEii @810
    _ZN8FREEDIUS16array_image_base24image_array_length_bytesEv @811
    _ZN8FREEDIUS16array_image_base7getlineEPhiiiiii @812
    _ZN8FREEDIUS16array_image_base7getlineEPsiiiiii @813
    _ZN8FREEDIUS16array_image_base7getlineEPtiiiiii @814
    _ZN8FREEDIUS16array_image_base7putlineEPhiiiii @815
    _ZN8FREEDIUS16array_image_base7putlineEPtiiiii @816
    _ZN8FREEDIUS16array_image_base9map_imageEiiNS_22__image_element_type__EiPjS2_ @817
    _ZN8FREEDIUS16array_image_baseC1EiiNS_22__image_element_type__Eiiiii @818
    _ZN8FREEDIUS16array_image_baseC2EiiNS_22__image_element_type__Eiiiii @819
    _ZN8FREEDIUS16array_putlinecolINS_11array_imageIcEEcdEEiPT_PT0_PjjPT1_ii @820
    _ZN8FREEDIUS16array_putlinecolINS_11array_imageIcEEcfEEiPT_PT0_PjjPT1_ii @821
    _ZN8FREEDIUS16array_putlinecolINS_11array_imageIcEEciEEiPT_PT0_PjjPT1_ii @822
    _ZN8FREEDIUS16array_putlinecolINS_11array_imageIdEEddEEiPT_PT0_PjjPT1_ii @823
    _ZN8FREEDIUS16array_putlinecolINS_11array_imageIdEEdfEEiPT_PT0_PjjPT1_ii @824
    _ZN8FREEDIUS16array_putlinecolINS_11array_imageIdEEdiEEiPT_PT0_PjjPT1_ii @825
    _ZN8FREEDIUS16array_putlinecolINS_11array_imageIfEEfdEEiPT_PT0_PjjPT1_ii @826
    _ZN8FREEDIUS16array_putlinecolINS_11array_imageIfEEffEEiPT_PT0_PjjPT1_ii @827
    _ZN8FREEDIUS16array_putlinecolINS_11array_imageIfEEfiEEiPT_PT0_PjjPT1_ii @828
    _ZN8FREEDIUS16array_putlinecolINS_11array_imageIhEEhdEEiPT_PT0_PjjPT1_ii @829
    _ZN8FREEDIUS16array_putlinecolINS_11array_imageIhEEhfEEiPT_PT0_PjjPT1_ii @830
    _ZN8FREEDIUS16array_putlinecolINS_11array_imageIhEEhhEEiPT_PT0_PjjPT1_ii @831
    _ZN8FREEDIUS16array_putlinecolINS_11array_imageIhEEhiEEiPT_PT0_PjjPT1_ii @832
    _ZN8FREEDIUS16array_putlinecolINS_11array_imageIiEEidEEiPT_PT0_PjjPT1_ii @833
    _ZN8FREEDIUS16array_putlinecolINS_11array_imageIiEEifEEiPT_PT0_PjjPT1_ii @834
    _ZN8FREEDIUS16array_putlinecolINS_11array_imageIiEEiiEEiPT_PT0_PjjPT1_ii @835
    _ZN8FREEDIUS16array_putlinecolINS_11array_imageIjEEjdEEiPT_PT0_PjjPT1_ii @836
    _ZN8FREEDIUS16array_putlinecolINS_11array_imageIjEEjfEEiPT_PT0_PjjPT1_ii @837
    _ZN8FREEDIUS16array_putlinecolINS_11array_imageIjEEjiEEiPT_PT0_PjjPT1_ii @838
    _ZN8FREEDIUS16array_putlinecolINS_11array_imageIsEEsdEEiPT_PT0_PjjPT1_ii @839
    _ZN8FREEDIUS16array_putlinecolINS_11array_imageIsEEsfEEiPT_PT0_PjjPT1_ii @840
    _ZN8FREEDIUS16array_putlinecolINS_11array_imageIsEEsiEEiPT_PT0_PjjPT1_ii @841
    _ZN8FREEDIUS16array_putlinecolINS_11array_imageItEEtdEEiPT_PT0_PjjPT1_ii @842
    _ZN8FREEDIUS16array_putlinecolINS_11array_imageItEEtfEEiPT_PT0_PjjPT1_ii @843
    _ZN8FREEDIUS16array_putlinecolINS_11array_imageItEEthEEiPT_PT0_PjjPT1_ii @844
    _ZN8FREEDIUS16array_putlinecolINS_11array_imageItEEtiEEiPT_PT0_PjjPT1_ii @845
    _ZN8FREEDIUS16array_putlinecolINS_11array_imageItEEttEEiPT_PT0_PjjPT1_ii @846
    _ZN8FREEDIUS16array_putlinecolINS_28band_interleaved_array_imageINS_10RGB8_PIXELEEES2_S2_EEiPT_PT0_PjjPT1_ii @847
    _ZN8FREEDIUS16array_putlinecolINS_28band_interleaved_array_imageINS_11RGBA8_PIXELEEES2_S2_EEiPT_PT0_PjjPT1_ii @848
    _ZN8FREEDIUS16bmp_image_header10load_imageEiPc @849
    _ZN8FREEDIUS16bmp_image_header11read_headerEi @850
    _ZN8FREEDIUS16bmp_image_header16recognize_headerEi @851
    _ZN8FREEDIUS16copy_pixel_rightENS_22__image_element_type__EPvii @852
    _ZN8FREEDIUS16image_class_nameENS_20__image_class_type__E @853
    _ZN8FREEDIUS16make_array_imageEiiNS_22__image_element_type__Eiiiii @854
    _ZN8FREEDIUS16make_paged_imageEiiNS_22__image_element_type__Eiiiiii @855
    _ZN8FREEDIUS16page_queue_entry14free_page_dataEv @856
    _ZN8FREEDIUS16page_queue_entryC1Ev @857
    _ZN8FREEDIUS16page_queue_entryC2Ev @858
    _ZN8FREEDIUS16paged_getlinecolINS_11paged_imageIcEEcdEEiPT_RT0_PjjPT1_iii @859
    _ZN8FREEDIUS16paged_getlinecolINS_11paged_imageIcEEcfEEiPT_RT0_PjjPT1_iii @860
    _ZN8FREEDIUS16paged_getlinecolINS_11paged_imageIcEEciEEiPT_RT0_PjjPT1_iii @861
    _ZN8FREEDIUS16paged_getlinecolINS_11paged_imageIdEEddEEiPT_RT0_PjjPT1_iii @862
    _ZN8FREEDIUS16paged_getlinecolINS_11paged_imageIdEEdfEEiPT_RT0_PjjPT1_iii @863
    _ZN8FREEDIUS16paged_getlinecolINS_11paged_imageIdEEdiEEiPT_RT0_PjjPT1_iii @864
    _ZN8FREEDIUS16paged_getlinecolINS_11paged_imageIfEEfdEEiPT_RT0_PjjPT1_iii @865
    _ZN8FREEDIUS16paged_getlinecolINS_11paged_imageIfEEffEEiPT_RT0_PjjPT1_iii @866
    _ZN8FREEDIUS16paged_getlinecolINS_11paged_imageIfEEfiEEiPT_RT0_PjjPT1_iii @867
    _ZN8FREEDIUS16paged_getlinecolINS_11paged_imageIhEEhdEEiPT_RT0_PjjPT1_iii @868
    _ZN8FREEDIUS16paged_getlinecolINS_11paged_imageIhEEhfEEiPT_RT0_PjjPT1_iii @869
    _ZN8FREEDIUS16paged_getlinecolINS_11paged_imageIhEEhhEEiPT_RT0_PjjPT1_iii @870
    _ZN8FREEDIUS16paged_getlinecolINS_11paged_imageIhEEhiEEiPT_RT0_PjjPT1_iii @871
    _ZN8FREEDIUS16paged_getlinecolINS_11paged_imageIiEEidEEiPT_RT0_PjjPT1_iii @872
    _ZN8FREEDIUS16paged_getlinecolINS_11paged_imageIiEEifEEiPT_RT0_PjjPT1_iii @873
    _ZN8FREEDIUS16paged_getlinecolINS_11paged_imageIiEEiiEEiPT_RT0_PjjPT1_iii @874
    _ZN8FREEDIUS16paged_getlinecolINS_11paged_imageIjEEjdEEiPT_RT0_PjjPT1_iii @875
    _ZN8FREEDIUS16paged_getlinecolINS_11paged_imageIjEEjfEEiPT_RT0_PjjPT1_iii @876
    _ZN8FREEDIUS16paged_getlinecolINS_11paged_imageIjEEjiEEiPT_RT0_PjjPT1_iii @877
    _ZN8FREEDIUS16paged_getlinecolINS_11paged_imageIsEEsdEEiPT_RT0_PjjPT1_iii @878
    _ZN8FREEDIUS16paged_getlinecolINS_11paged_imageIsEEsfEEiPT_RT0_PjjPT1_iii @879
    _ZN8FREEDIUS16paged_getlinecolINS_11paged_imageIsEEsiEEiPT_RT0_PjjPT1_iii @880
    _ZN8FREEDIUS16paged_getlinecolINS_11paged_imageIsEEssEEiPT_RT0_PjjPT1_iii @881
    _ZN8FREEDIUS16paged_getlinecolINS_11paged_imageItEEtdEEiPT_RT0_PjjPT1_iii @882
    _ZN8FREEDIUS16paged_getlinecolINS_11paged_imageItEEtfEEiPT_RT0_PjjPT1_iii @883
    _ZN8FREEDIUS16paged_getlinecolINS_11paged_imageItEEthEEiPT_RT0_PjjPT1_iii @884
    _ZN8FREEDIUS16paged_getlinecolINS_11paged_imageItEEtiEEiPT_RT0_PjjPT1_iii @885
    _ZN8FREEDIUS16paged_getlinecolINS_11paged_imageItEEttEEiPT_RT0_PjjPT1_iii @886
    _ZN8FREEDIUS16paged_getlinecolINS_28band_interleaved_paged_imageINS_10RGB8_PIXELEEES2_S2_EEiPT_RT0_PjjPT1_iii @887
    _ZN8FREEDIUS16paged_getlinecolINS_28band_interleaved_paged_imageINS_11RGBA8_PIXELEEES2_S2_EEiPT_RT0_PjjPT1_iii @888
    _ZN8FREEDIUS16paged_image_base10class_codeEv @889
    _ZN8FREEDIUS16paged_image_base10save_imageEPci @890
    _ZN8FREEDIUS16paged_image_base14get_image_tileEii @891
    _ZN8FREEDIUS16paged_image_base16iref_page_numberEii @892
    _ZN8FREEDIUS16paged_image_base18add_to_working_setEiii @893
    _ZN8FREEDIUS16paged_image_base18set_page_pool_sizeEii @894
    _ZN8FREEDIUS16paged_image_base22default_construct_mapsEi @895
    _ZN8FREEDIUS16paged_image_base23remove_from_working_setEiii @896
    _ZN8FREEDIUS16paged_image_base7getlineEPfiiiiii @897
    _ZN8FREEDIUS16paged_image_base7getlineEPhiiiiii @898
    _ZN8FREEDIUS16paged_image_base7getlineEPsiiiiii @899
    _ZN8FREEDIUS16paged_image_base7getlineEPtiiiiii @900
    _ZN8FREEDIUS16paged_image_base7putlineEPhiiiii @901
    _ZN8FREEDIUS16paged_image_base9map_imageEiiNS_22__image_element_type__EiPjS2_ @902
    _ZN8FREEDIUS16paged_image_baseC1EiiNS_22__image_element_type__Eiiiiii @903
    _ZN8FREEDIUS16paged_image_baseC1Ev @904
    _ZN8FREEDIUS16paged_image_baseC2EiiNS_22__image_element_type__Eiiiiii @905
    _ZN8FREEDIUS16paged_image_baseC2Ev @906
    _ZN8FREEDIUS16paged_putlinecolINS_11paged_imageIcEEcdEEiPT_RT0_PjjPT1_ii @907
    _ZN8FREEDIUS16paged_putlinecolINS_11paged_imageIcEEcfEEiPT_RT0_PjjPT1_ii @908
    _ZN8FREEDIUS16paged_putlinecolINS_11paged_imageIcEEciEEiPT_RT0_PjjPT1_ii @909
    _ZN8FREEDIUS16paged_putlinecolINS_11paged_imageIdEEddEEiPT_RT0_PjjPT1_ii @910
    _ZN8FREEDIUS16paged_putlinecolINS_11paged_imageIdEEdfEEiPT_RT0_PjjPT1_ii @911
    _ZN8FREEDIUS16paged_putlinecolINS_11paged_imageIdEEdiEEiPT_RT0_PjjPT1_ii @912
    _ZN8FREEDIUS16paged_putlinecolINS_11paged_imageIfEEfdEEiPT_RT0_PjjPT1_ii @913
    _ZN8FREEDIUS16paged_putlinecolINS_11paged_imageIfEEffEEiPT_RT0_PjjPT1_ii @914
    _ZN8FREEDIUS16paged_putlinecolINS_11paged_imageIfEEfiEEiPT_RT0_PjjPT1_ii @915
    _ZN8FREEDIUS16paged_putlinecolINS_11paged_imageIhEEhdEEiPT_RT0_PjjPT1_ii @916
    _ZN8FREEDIUS16paged_putlinecolINS_11paged_imageIhEEhfEEiPT_RT0_PjjPT1_ii @917
    _ZN8FREEDIUS16paged_putlinecolINS_11paged_imageIhEEhhEEiPT_RT0_PjjPT1_ii @918
    _ZN8FREEDIUS16paged_putlinecolINS_11paged_imageIhEEhiEEiPT_RT0_PjjPT1_ii @919
    _ZN8FREEDIUS16paged_putlinecolINS_11paged_imageIiEEidEEiPT_RT0_PjjPT1_ii @920
    _ZN8FREEDIUS16paged_putlinecolINS_11paged_imageIiEEifEEiPT_RT0_PjjPT1_ii @921
    _ZN8FREEDIUS16paged_putlinecolINS_11paged_imageIiEEiiEEiPT_RT0_PjjPT1_ii @922
    _ZN8FREEDIUS16paged_putlinecolINS_11paged_imageIjEEjdEEiPT_RT0_PjjPT1_ii @923
    _ZN8FREEDIUS16paged_putlinecolINS_11paged_imageIjEEjfEEiPT_RT0_PjjPT1_ii @924
    _ZN8FREEDIUS16paged_putlinecolINS_11paged_imageIjEEjiEEiPT_RT0_PjjPT1_ii @925
    _ZN8FREEDIUS16paged_putlinecolINS_11paged_imageIsEEsdEEiPT_RT0_PjjPT1_ii @926
    _ZN8FREEDIUS16paged_putlinecolINS_11paged_imageIsEEsfEEiPT_RT0_PjjPT1_ii @927
    _ZN8FREEDIUS16paged_putlinecolINS_11paged_imageIsEEsiEEiPT_RT0_PjjPT1_ii @928
    _ZN8FREEDIUS16paged_putlinecolINS_11paged_imageItEEtdEEiPT_RT0_PjjPT1_ii @929
    _ZN8FREEDIUS16paged_putlinecolINS_11paged_imageItEEtfEEiPT_RT0_PjjPT1_ii @930
    _ZN8FREEDIUS16paged_putlinecolINS_11paged_imageItEEthEEiPT_RT0_PjjPT1_ii @931
    _ZN8FREEDIUS16paged_putlinecolINS_11paged_imageItEEtiEEiPT_RT0_PjjPT1_ii @932
    _ZN8FREEDIUS16paged_putlinecolINS_28band_interleaved_paged_imageINS_10RGB8_PIXELEEES2_S2_EEiPT_RT0_PjjPT1_ii @933
    _ZN8FREEDIUS16paged_putlinecolINS_28band_interleaved_paged_imageINS_11RGBA8_PIXELEEES2_S2_EEiPT_RT0_PjjPT1_ii @934
    _ZN8FREEDIUS16pgm_image_header10load_imageEiPc @935
    _ZN8FREEDIUS16pgm_image_header11read_headerEi @936
    _ZN8FREEDIUS16pgm_image_header16recognize_headerEi @937
    _ZN8FREEDIUS16ppm_image_header10load_imageEiPc @938
    _ZN8FREEDIUS16ppm_image_header11read_headerEi @939
    _ZN8FREEDIUS16ppm_image_header16recognize_headerEi @940
    _ZN8FREEDIUS16setCErrorHandlerEPFvPKcPcE @941
    _ZN8FREEDIUS16set_read_retriesEi @942
    _ZN8FREEDIUS16stop_warning_logEv @943
    _ZN8FREEDIUS16y_to_lstar_valueEd @944
    _ZN8FREEDIUS17bmp_image_header1E @945 DATA
    _ZN8FREEDIUS17cast_float_to_intEf @946
    _ZN8FREEDIUS17cast_int_to_floatEi @947
    _ZN8FREEDIUS17describe_page_mapEPNS_18image_page_handlerE @948
    _ZN8FREEDIUS17describe_page_mapEPNS_23lazy_image_page_handlerE @949
    _ZN8FREEDIUS17describe_page_mapEPNS_8page_mapE @950
    _ZN8FREEDIUS17find_image_headerEPc @951
    _ZN8FREEDIUS17find_image_headerEi @952
    _ZN8FREEDIUS17gauss_1d_loop_intEiPiS0_iiii @953
    _ZN8FREEDIUS17image_header_listE @954 DATA
    _ZN8FREEDIUS17init_color_tablesEv @955
    _ZN8FREEDIUS17jpeg_image_header10load_imageEiPc @956
    _ZN8FREEDIUS17jpeg_image_header11read_headerEi @957
    _ZN8FREEDIUS17jpeg_image_header16recognize_headerEi @958
    _ZN8FREEDIUS17lazy_retile_imageEPNS_5imageEiiNS_22__image_element_type__EPv @959
    _ZN8FREEDIUS17make_page_handlerEPNS_16paged_image_baseEiPFPNS_23file_image_page_handlerEPNS_15image_page_poolEiE @960
    _ZN8FREEDIUS17make_raster_imageEiiNS_22__image_element_type__Eii @961
    _ZN8FREEDIUS17page_queue_lengthEPNS_10page_queueE @962
    _ZN8FREEDIUS17pgm_image_header1E @963 DATA
    _ZN8FREEDIUS17ppm_image_header1E @964 DATA
    _ZN8FREEDIUS17read_sunras_imageEPc @965
    _ZN8FREEDIUS17setWarningHandlerEPFvPKcPcE @966
    _ZN8FREEDIUS17start_warning_logEPc @967
    _ZN8FREEDIUS17tiff_image_header10load_imageEiPc @968
    _ZN8FREEDIUS17tiff_image_header11read_headerEP4tiff @969
    _ZN8FREEDIUS17tiff_image_header11read_headerEi @970
    _ZN8FREEDIUS17tiff_image_header16recognize_headerEi @971
    _ZN8FREEDIUS17tiff_image_header20load_tiff_lazy_imageEP4tiffi @972
    _ZN8FREEDIUS17tiff_image_header21load_tiled_tiff_imageEP4tiff @973
    _ZN8FREEDIUS17tiff_image_header23load_untiled_tiff_imageEP4tiff @974
    _ZN8FREEDIUS17tiff_image_header25read_property_list_stringEPc @975
    _ZN8FREEDIUS17tiff_image_header34load_untiled_compressed_tiff_imageEP4tiff @976
    _ZN8FREEDIUS17tiff_image_header37load_band_sequential_tiled_tiff_imageEP4tiff @977
    _ZN8FREEDIUS17tiff_image_header38load_band_interleaved_tiled_tiff_imageEP4tiff @978
    _ZN8FREEDIUS18basic_image_header10load_imageEiPc @979
    _ZN8FREEDIUS18basic_image_header11read_headerEi @980
    _ZN8FREEDIUS18basic_image_header12write_headerEi @981
    _ZN8FREEDIUS18basic_image_header16recognize_headerEi @982
    _ZN8FREEDIUS18basic_image_header16set_header_slotsEPNS_20blocked_mapped_imageE @983
    _ZN8FREEDIUS18basic_image_header25read_property_list_stringEPc @984
    _ZN8FREEDIUS18basic_page_handler10write_pageEi @985
    _ZN8FREEDIUS18basic_page_handler12tile_builderEiiiiPc @986
    _ZN8FREEDIUS18basic_page_handler15read_page_faultEi @987
    _ZN8FREEDIUS18basic_page_handler15set_page_statusEii @988
    _ZN8FREEDIUS18basic_page_handler16probe_page_faultEi @989
    _ZN8FREEDIUS18basic_page_handler16write_page_faultEi @990
    _ZN8FREEDIUS18basic_page_handler8get_pageEi @991
    _ZN8FREEDIUS18basic_page_handler9read_pageEi @992
    _ZN8FREEDIUS18basic_page_handlerC1EPNS_9page_poolEii @993
    _ZN8FREEDIUS18basic_page_handlerC1Ev @994
    _ZN8FREEDIUS18basic_page_handlerC2EPNS_9page_poolEii @995
    _ZN8FREEDIUS18basic_page_handlerC2Ev @996
    _ZN8FREEDIUS18cast_float_to_longEf @997
    _ZN8FREEDIUS18cast_long_to_floatEl @998
    _ZN8FREEDIUS18choose_image_classEiiiiii @999
    _ZN8FREEDIUS18get_image_colormapEPNS_5imageE @1000
    _ZN8FREEDIUS18get_page_pool_sizeEi @1001
    _ZN8FREEDIUS18image_page_handler10save_imageEPNS_16paged_image_baseEPc @1002
    _ZN8FREEDIUS18image_page_handler15read_page_faultEi @1003
    _ZN8FREEDIUS18image_page_handler15set_page_statusEii @1004
    _ZN8FREEDIUS18image_page_handler16write_page_faultEi @1005
    _ZN8FREEDIUS18image_page_handler17map_image_to_fileEPNS_16paged_image_baseEiPci @1006
    _ZN8FREEDIUS18image_page_handlerC1EPNS_15image_page_poolEii @1007
    _ZN8FREEDIUS18image_page_handlerC1Ev @1008
    _ZN8FREEDIUS18image_page_handlerC2EPNS_15image_page_poolEii @1009
    _ZN8FREEDIUS18image_page_handlerC2Ev @1010
    _ZN8FREEDIUS18jpeg_image_header1E @1011 DATA
    _ZN8FREEDIUS18lisp_error_handlerEPKcPc @1012
    _ZN8FREEDIUS18print_image_headerEPNS_23iu_testbed_image_headerE @1013
    _ZN8FREEDIUS18require_image_colsC1EPNS_5imageEi @1014
    _ZN8FREEDIUS18require_image_colsC2EPNS_5imageEi @1015
    _ZN8FREEDIUS18require_image_colsD1Ev @1016
    _ZN8FREEDIUS18require_image_colsD2Ev @1017
    _ZN8FREEDIUS18require_image_rowsC1EPNS_5imageEi @1018
    _ZN8FREEDIUS18require_image_rowsC2EPNS_5imageEi @1019
    _ZN8FREEDIUS18require_image_rowsD1Ev @1020
    _ZN8FREEDIUS18require_image_rowsD2Ev @1021
    _ZN8FREEDIUS18rgb8_to_yuv_imagesEPNS_5imageES1_S1_S1_ @1022
    _ZN8FREEDIUS18rgb_to_lstar_imageEPNS_5imageES1_S1_S1_ @1023
    _ZN8FREEDIUS18set_image_colormapEPNS_5imageEPPt @1024
    _ZN8FREEDIUS18set_page_pool_sizeEPNS_9page_poolEi @1025
    _ZN8FREEDIUS18tiff_image_header1E @1026 DATA
    _ZN8FREEDIUS19fast_gauss_convolveEPNS_5imageES1_idS1_ @1027
    _ZN8FREEDIUS19gauss_convolve_fullEPNS_5imageEdiS1_ @1028
    _ZN8FREEDIUS19image_get_rectangleEPNS_20blocked_mapped_imageENS_22__image_element_type__EPviiiiiii @1029
    _ZN8FREEDIUS19image_put_rectangleEPNS_20blocked_mapped_imageENS_22__image_element_type__EPviiiiiii @1030
    _ZN8FREEDIUS19init_array_image_fnEv @1031
    _ZN8FREEDIUS19lock_page_pool_pageEPNS_9page_poolEPNS_16page_queue_entryE @1032
    _ZN8FREEDIUS19map_over_page_queueEPNS_10page_queueEPFvPNS_16page_queue_entryEE @1033
    _ZN8FREEDIUS19require_image_pagesC1EPNS_5imageEiii @1034
    _ZN8FREEDIUS19require_image_pagesC2EPNS_5imageEiii @1035
    _ZN8FREEDIUS19require_image_pagesD1Ev @1036
    _ZN8FREEDIUS19require_image_pagesD2Ev @1037
    _ZN8FREEDIUS20QCME_executable_pathEPKc @1038
    _ZN8FREEDIUS20age_page_queue_entryEPNS_16page_queue_entryE @1039
    _ZN8FREEDIUS20blocked_mapped_image14get_image_tileEii @1040
    _ZN8FREEDIUS20blocked_mapped_image15init_block_dimsEiiii @1041
    _ZN8FREEDIUS20blocked_mapped_image16iref_page_numberEii @1042
    _ZN8FREEDIUS20blocked_mapped_image18set_page_pool_sizeEii @1043
    _ZN8FREEDIUS20blocked_mapped_image22default_construct_mapsEi @1044
    _ZN8FREEDIUS20blocked_mapped_image30image_page_number_to_rectangleEiRiS1_S1_S1_ @1045
    _ZN8FREEDIUS20blocked_mapped_imageC1EiiNS_22__image_element_type__Eiiii @1046
    _ZN8FREEDIUS20blocked_mapped_imageC2EiiNS_22__image_element_type__Eiiii @1047
    _ZN8FREEDIUS20box_filter_decimate2EPNS_5imageES1_ @1048
    _ZN8FREEDIUS20find_free_page_entryEPNS_9page_poolE @1049
    _ZN8FREEDIUS20free_colormap_memoryEPPt @1050
    _ZN8FREEDIUS20free_page_pool_entryEPNS_9page_poolEPNS_16page_queue_entryE @1051
    _ZN8FREEDIUS20gauss_convolve_imageEPNS_5imageEdS1_iS1_ @1052
    _ZN8FREEDIUS20get_page_entry_arrayEPNS_8page_mapEPNS_22image_page_queue_entryE @1053
    _ZN8FREEDIUS20image_page_pool_listE @1054 DATA
    _ZN8FREEDIUS20jpeg_mem_packet_sizeEP20jpeg_compress_struct @1055
    _ZN8FREEDIUS20make_tiff_file_imageEiiNS_22__image_element_type__EiiiiPc @1056
    _ZN8FREEDIUS20make_tiff_lazy_imageEPciiNS_22__image_element_type__Eiiiiiii @1057
    _ZN8FREEDIUS20max_array_image_sizeE @1058 DATA
    _ZN8FREEDIUS20verify_property_listEPNS_19pointer_list_structE @1059
    _ZN8FREEDIUS21choose_image_class_fnE @1060 DATA
    _ZN8FREEDIUS21default_error_handlerEPKcPc @1061
    _ZN8FREEDIUS21free_page_queue_entryEPNS_16page_queue_entryE @1062
    _ZN8FREEDIUS21image_page_pool_statsEPNS_16paged_image_baseEi @1063
    _ZN8FREEDIUS21init_ppm_image_headerEv @1064
    _ZN8FREEDIUS21iu_testbed_save_imageEPNS_16array_image_baseEPci @1065
    _ZN8FREEDIUS21iu_write_header_breakEv @1066
    _ZN8FREEDIUS21max_array_image_bytesE @1067 DATA
    _ZN8FREEDIUS21unlock_page_pool_pageEPNS_9page_poolEPNS_16page_queue_entryE @1068
    _ZN8FREEDIUS22default_cerror_handlerEPKcPc @1069
    _ZN8FREEDIUS22find_read_image_headerEPci @1070
    _ZN8FREEDIUS22gauss_reduce_loop_longEiiiiiPiS0_S0_S0_S0_S0_ @1071
    _ZN8FREEDIUS22image_filter_decimate2EPNS_5imageENS_27_image_pyramid_filter_type_ES1_ @1072
    _ZN8FREEDIUS22image_page_queue_entry14free_page_dataEv @1073
    _ZN8FREEDIUS22image_page_queue_entryC1EPNS_15image_page_poolE @1074
    _ZN8FREEDIUS22image_page_queue_entryC2EPNS_15image_page_poolE @1075
    _ZN8FREEDIUS22init_jpeg_image_headerEv @1076
    _ZN8FREEDIUS22map_file_image_to_fileEPNS_16paged_image_baseEiPci @1077
    _ZN8FREEDIUS22resize_image_page_poolEPNS_16paged_image_baseEi @1078
    _ZN8FREEDIUS22write_bmp_image_headerEPciiiiii @1079
    _ZN8FREEDIUS23default_warning_handlerEPKcPc @1080
    _ZN8FREEDIUS23file_image_page_handler10save_imageEPNS_16paged_image_baseEPc @1081
    _ZN8FREEDIUS23file_image_page_handler10unmap_fileEi @1082
    _ZN8FREEDIUS23file_image_page_handler10write_pageEi @1083
    _ZN8FREEDIUS23file_image_page_handler12page_fileposEi @1084
    _ZN8FREEDIUS23file_image_page_handler16probe_page_faultEi @1085
    _ZN8FREEDIUS23file_image_page_handler17map_image_to_fileEPNS_16paged_image_baseEiPci @1086
    _ZN8FREEDIUS23file_image_page_handler25force_page_initializationEv @1087
    _ZN8FREEDIUS23file_image_page_handler9read_pageEi @1088
    _ZN8FREEDIUS23file_image_page_handlerC1EPNS_15image_page_poolEi @1089
    _ZN8FREEDIUS23file_image_page_handlerC2EPNS_15image_page_poolEi @1090
    _ZN8FREEDIUS23gauss_convolve_decimateEPNS_5imageEdS1_ @1091
    _ZN8FREEDIUS23gauss_convolve_full_intIiEEPNS_5imageES2_diS2_T_ @1092
    _ZN8FREEDIUS23image_element_type_nameENS_22__image_element_type__E @1093
    _ZN8FREEDIUS23init_make_file_image_fnEv @1094
    _ZN8FREEDIUS23iu_testbed_image_header10load_imageEiPc @1095
    _ZN8FREEDIUS23iu_testbed_image_header11read_headerEi @1096
    _ZN8FREEDIUS23iu_testbed_image_header12write_headerEi @1097
    _ZN8FREEDIUS23iu_testbed_image_header16recognize_headerEi @1098
    _ZN8FREEDIUS23iu_testbed_image_header16set_header_slotsEPNS_20blocked_mapped_imageE @1099
    _ZN8FREEDIUS23iu_testbed_image_header25read_property_list_stringEPc @1100
    _ZN8FREEDIUS23iu_testbed_image_header27property_list_file_positionEv @1101
    _ZN8FREEDIUS23lazy_image_page_handler10write_pageEi @1102
    _ZN8FREEDIUS23lazy_image_page_handler12tile_builderEiiiiPc @1103
    _ZN8FREEDIUS23lazy_image_page_handler17init_page_handlerEPNS_16paged_image_baseE @1104
    _ZN8FREEDIUS23lazy_image_page_handler9read_pageEi @1105
    _ZN8FREEDIUS23save_untiled_tiff_imageEPNS_5imageEPciii @1106
    _ZN8FREEDIUS23set_read_retry_intervalEi @1107
    _ZN8FREEDIUS23swap_image_array_endianEPNS_16array_image_baseE @1108
    _ZN8FREEDIUS23write_tiff_image_headerEPciiiiiiiiii @1109
    _ZN8FREEDIUS24LISP_ARRAY_HEADER_OFFSETE @1110 DATA
    _ZN8FREEDIUS24Page_pool_resize_verboseE @1111 DATA
    _ZN8FREEDIUS24box_filter_decimate2_rgbINS_10RGB8_PIXELEEEPNS_5imageES3_PT_S3_ @1112
    _ZN8FREEDIUS24box_filter_decimate2_rgbINS_11RGBA8_PIXELEEEPNS_5imageES3_PT_S3_ @1113
    _ZN8FREEDIUS24gauss_convolve_decimate2IdEEPNS_5imageES2_T_S3_S3_iiS3_S2_ @1114
    _ZN8FREEDIUS24gauss_convolve_decimate3IiEEPNS_5imageES2_T_iiiiiS2_ @1115
    _ZN8FREEDIUS24image_element_propertiesENS_22__image_element_type__ERiS1_S1_S1_ @1116
    _ZN8FREEDIUS24iu_testbed_image_header1E @1117 DATA
    _ZN8FREEDIUS24make_file_or_array_imageEiiNS_22__image_element_type__Eiiii @1118
    _ZN8FREEDIUS24swap_endian_double_floatEPdi @1119
    _ZN8FREEDIUS24swap_endian_single_floatEPfi @1120
    _ZN8FREEDIUS25all_image_page_pool_statsEi @1121
    _ZN8FREEDIUS25array_image_max_block_dimE @1122 DATA
    _ZN8FREEDIUS25file_image_default_formatE @1123 DATA
    _ZN8FREEDIUS25gauss_convolve_full_floatIdEEPNS_5imageES2_T_iS2_ @1124
    _ZN8FREEDIUS25max_huge_array_image_sizeE @1125 DATA
    _ZN8FREEDIUS25possibly_create_new_entryEPNS_9page_poolE @1126
    _ZN8FREEDIUS25read_property_list_stringEPc @1127
    _ZN8FREEDIUS25save_image_default_formatE @1128 DATA
    _ZN8FREEDIUS26generic_image_method_errorEPNS_5imageEPKc @1129
    _ZN8FREEDIUS26iu_testbed_load_file_imageEPc @1130
    _ZN8FREEDIUS26make_iu_testbed_file_imageEiiNS_22__image_element_type__EiiiiPc @1131
    _ZN8FREEDIUS27gauss_1d_loop_long_var_stepEiPiS0_iiiii @1132
    _ZN8FREEDIUS27init_bmp_array_image_headerEv @1133
    _ZN8FREEDIUS28FREEDIUS_make_image_callbackEiiNS_22__image_element_type__Eiiii @1134
    _ZN8FREEDIUS28add_entry_to_page_queue_headEPNS_16page_queue_entryEPNS_10page_queueE @1135
    _ZN8FREEDIUS28add_entry_to_page_queue_tailEPNS_16page_queue_entryEPNS_10page_queueE @1136
    _ZN8FREEDIUS28allocate_file_image_pathnameEv @1137
    _ZN8FREEDIUS28band_interleaved_array_imageINS_10RGB8_PIXELEE11image_arrayEv @1138
    _ZN8FREEDIUS28band_interleaved_array_imageINS_10RGB8_PIXELEE12element_typeEv @1139
    _ZN8FREEDIUS28band_interleaved_array_imageINS_10RGB8_PIXELEE14get_image_tileEii @1140
    _ZN8FREEDIUS28band_interleaved_array_imageINS_10RGB8_PIXELEE15set_image_arrayEPv @1141
    _ZN8FREEDIUS28band_interleaved_array_imageINS_10RGB8_PIXELEE7getlineEPS1_iiiiii @1142
    _ZN8FREEDIUS28band_interleaved_array_imageINS_10RGB8_PIXELEE7getlineEPviiiiii @1143
    _ZN8FREEDIUS28band_interleaved_array_imageINS_10RGB8_PIXELEE7putlineEPS1_iiiii @1144
    _ZN8FREEDIUS28band_interleaved_array_imageINS_10RGB8_PIXELEE7putlineEPviiiii @1145
    _ZN8FREEDIUS28band_interleaved_array_imageINS_10RGB8_PIXELEE9getcolumnEPS1_iiiiii @1146
    _ZN8FREEDIUS28band_interleaved_array_imageINS_10RGB8_PIXELEE9putcolumnEPS1_iiiii @1147
    _ZN8FREEDIUS28band_interleaved_array_imageINS_11RGBA8_PIXELEE11image_arrayEv @1148
    _ZN8FREEDIUS28band_interleaved_array_imageINS_11RGBA8_PIXELEE12element_typeEv @1149
    _ZN8FREEDIUS28band_interleaved_array_imageINS_11RGBA8_PIXELEE14get_image_tileEii @1150
    _ZN8FREEDIUS28band_interleaved_array_imageINS_11RGBA8_PIXELEE15set_image_arrayEPv @1151
    _ZN8FREEDIUS28band_interleaved_array_imageINS_11RGBA8_PIXELEE7getlineEPS1_iiiiii @1152
    _ZN8FREEDIUS28band_interleaved_array_imageINS_11RGBA8_PIXELEE7getlineEPviiiiii @1153
    _ZN8FREEDIUS28band_interleaved_array_imageINS_11RGBA8_PIXELEE7putlineEPS1_iiiii @1154
    _ZN8FREEDIUS28band_interleaved_array_imageINS_11RGBA8_PIXELEE7putlineEPviiiii @1155
    _ZN8FREEDIUS28band_interleaved_array_imageINS_11RGBA8_PIXELEE9getcolumnEPS1_iiiiii @1156
    _ZN8FREEDIUS28band_interleaved_array_imageINS_11RGBA8_PIXELEE9putcolumnEPS1_iiiii @1157
    _ZN8FREEDIUS28band_interleaved_paged_imageINS_10RGB8_PIXELEE12element_typeEv @1158
    _ZN8FREEDIUS28band_interleaved_paged_imageINS_10RGB8_PIXELEE15example_elementE @1159 DATA
    _ZN8FREEDIUS28band_interleaved_paged_imageINS_10RGB8_PIXELEE7getlineEPS1_iiiiii @1160
    _ZN8FREEDIUS28band_interleaved_paged_imageINS_10RGB8_PIXELEE7getlineEPviiiiii @1161
    _ZN8FREEDIUS28band_interleaved_paged_imageINS_10RGB8_PIXELEE7putlineEPS1_iiiii @1162
    _ZN8FREEDIUS28band_interleaved_paged_imageINS_10RGB8_PIXELEE7putlineEPviiiii @1163
    _ZN8FREEDIUS28band_interleaved_paged_imageINS_10RGB8_PIXELEE9getcolumnEPS1_iiiiii @1164
    _ZN8FREEDIUS28band_interleaved_paged_imageINS_10RGB8_PIXELEE9putcolumnEPS1_iiiii @1165
    _ZN8FREEDIUS28band_interleaved_paged_imageINS_11RGBA8_PIXELEE12element_typeEv @1166
    _ZN8FREEDIUS28band_interleaved_paged_imageINS_11RGBA8_PIXELEE15example_elementE @1167 DATA
    _ZN8FREEDIUS28band_interleaved_paged_imageINS_11RGBA8_PIXELEE7getlineEPS1_iiiiii @1168
    _ZN8FREEDIUS28band_interleaved_paged_imageINS_11RGBA8_PIXELEE7getlineEPviiiiii @1169
    _ZN8FREEDIUS28band_interleaved_paged_imageINS_11RGBA8_PIXELEE7putlineEPS1_iiiii @1170
    _ZN8FREEDIUS28band_interleaved_paged_imageINS_11RGBA8_PIXELEE7putlineEPviiiii @1171
    _ZN8FREEDIUS28band_interleaved_paged_imageINS_11RGBA8_PIXELEE9getcolumnEPS1_iiiiii @1172
    _ZN8FREEDIUS28band_interleaved_paged_imageINS_11RGBA8_PIXELEE9putcolumnEPS1_iiiii @1173
    _ZN8FREEDIUS28image_element_size_from_typeENS_22__image_element_type__E @1174
    _ZN8FREEDIUS28image_element_type_from_sizeEiii @1175
    _ZN8FREEDIUS28image_get_rectangle_borderedEPNS_20blocked_mapped_imageENS_22__image_element_type__EPviiiiiiii @1176
    _ZN8FREEDIUS28init_tiff_array_image_headerEv @1177
    _ZN8FREEDIUS28iu_testbed_file_image_header10load_imageEiPc @1178
    _ZN8FREEDIUS28iu_testbed_file_image_header16recognize_headerEi @1179
    _ZN8FREEDIUS28iu_testbed_file_image_header28validate_file_image_hdr_dimsEv @1180
    _ZN8FREEDIUS28lisp_lazy_image_page_handler9read_pageEi @1181
    _ZN8FREEDIUS28remove_entry_from_page_queueEPNS_16page_queue_entryEPNS_10page_queueE @1182
    _ZN8FREEDIUS28tiff_file_image_page_handler12page_fileposEi @1183
    _ZN8FREEDIUS28tiff_lazy_image_page_handler10save_imageEPc @1184
    _ZN8FREEDIUS28tiff_lazy_image_page_handler10write_pageEi @1185
    _ZN8FREEDIUS28tiff_lazy_image_page_handler12tile_builderEiiiiPc @1186
    _ZN8FREEDIUS29FREEDIUS_lazy_image_fill_tileEPviiiii @1187
    _ZN8FREEDIUS29decode_coefs_from_jpeg_bufferEPhiPNS_5imageE @1188
    _ZN8FREEDIUS29decode_image_from_jpeg_bufferEPhiPNS_5imageE @1189
    _ZN8FREEDIUS29encode_image_into_jpeg_bufferEPhiPNS_5imageEi @1190
    _ZN8FREEDIUS29file_image_allocation_counterE @1191 DATA
    _ZN8FREEDIUS29file_image_allowed_block_dimsE @1192 DATA
    _ZN8FREEDIUS29file_image_choose_image_classEiiiiii @1193
    _ZN8FREEDIUS29file_image_default_block_xdimE @1194 DATA
    _ZN8FREEDIUS29file_image_default_block_ydimE @1195 DATA
    _ZN8FREEDIUS29iu_testbed_file_image_header1E @1196 DATA
    _ZN8FREEDIUS30any_file_image__block_size4_okE @1197 DATA
    _ZN8FREEDIUS30array_image_choose_image_classEv @1198
    _ZN8FREEDIUS30array_image_default_block_dimsEiiPiS0_ @1199
    _ZN8FREEDIUS30array_image_default_block_xdimE @1200 DATA
    _ZN8FREEDIUS30array_image_default_block_ydimE @1201 DATA
    _ZN8FREEDIUS30lazy_retile_image_page_handler12tile_builderEiiiiPc @1202
    _ZN8FREEDIUS30lazy_retile_image_page_handler17init_page_handlerEPNS_16paged_image_baseEi @1203
    _ZN8FREEDIUS30paged_image_default_block_xdimE @1204 DATA
    _ZN8FREEDIUS30paged_image_default_block_ydimE @1205 DATA
    _ZN8FREEDIUS31tiff_image_header_error_handlerEPKcS1_Pc @1206
    _ZN8FREEDIUS32acceptable_file_image_block_sizeEii @1207
    _ZN8FREEDIUS32file_image_default_header_lengthE @1208 DATA
    _ZN8FREEDIUS32init_image_choose_image_class_fnEv @1209
    _ZN8FREEDIUS33default_file_image_directory_pathEv @1210
    _ZN8FREEDIUS33init_iu_testbed_file_image_headerEv @1211
    _ZN8FREEDIUS33make_band_interleaved_paged_imageEiiNS_22__image_element_type__Eiiiiii @1212
    _ZN8FREEDIUS33remove_entry_from_page_queue_headEPNS_10page_queueE @1213
    _ZN8FREEDIUS33remove_entry_from_page_queue_tailEPNS_10page_queueE @1214
    _ZN8FREEDIUS34FREEDIUS_make_array_image_callbackEiiNS_22__image_element_type__Eiiii @1215
    _ZN8FREEDIUS34default_file_image_page_pool_bytesE @1216 DATA
    _ZN8FREEDIUS34init_iu_testbed_array_image_headerEv @1217
    _ZN8FREEDIUS34iu_testbed_file_image_header_classE @1218 DATA
    _ZN8FREEDIUS34tiff_file_image_default_block_xdimE @1219 DATA
    _ZN8FREEDIUS34tiff_file_image_default_block_ydimE @1220 DATA
    _ZN8FREEDIUS35box_filter_decimate2_image_all_intsIiEEPNS_5imageES2_T_S2_ @1221
    _ZN8FREEDIUS35create_tiff_file_image_page_handlerEPNS_15image_page_poolEi @1222
    _ZN8FREEDIUS37box_filter_decimate2_image_all_floatsIdEEPNS_5imageES2_T_S2_ @1223
    _ZN8FREEDIUS37default_file_image_directory_pathnameE @1224 DATA
    _ZN8FREEDIUS38read_number_from_big_endian_byte_arrayEPci @1225
    _ZN8FREEDIUS3brkEv @1226
    _ZN8FREEDIUS3ctiE @1227 DATA
    _ZN8FREEDIUS3fooEv @1228
    _ZN8FREEDIUS4consEPvPNS_19pointer_list_structE @1229
    _ZN8FREEDIUS4foo2Ev @1230
    _ZN8FREEDIUS4lastEPNS_19pointer_list_structE @1231
    _ZN8FREEDIUS4memqEPKcPNS_19pointer_list_structE @1232
    _ZN8FREEDIUS4pushEPvPPNS_19pointer_list_structE @1233
    _ZN8FREEDIUS5assocEPNS_19pointer_list_structEPKc @1234
    _ZN8FREEDIUS5equalEPKcS1_ @1235
    _ZN8FREEDIUS5errorEPKcz @1236
    _ZN8FREEDIUS5image10class_codeEv @1237
    _ZN8FREEDIUS5image10save_imageEPci @1238
    _ZN8FREEDIUS5image12element_typeEv @1239
    _ZN8FREEDIUS5image16interpolate_irefEdd @1240
    _ZN8FREEDIUS5image18add_to_working_setEiii @1241
    _ZN8FREEDIUS5image23remove_from_working_setEiii @1242
    _ZN8FREEDIUS5image4irefEii @1243
    _ZN8FREEDIUS5image4isetEiid @1244
    _ZN8FREEDIUS5image4isetEiii @1245
    _ZN8FREEDIUS5image5direfEii @1246
    _ZN8FREEDIUS5image7getlineEPdiiiiii @1247
    _ZN8FREEDIUS5image7getlineEPfiiiiii @1248
    _ZN8FREEDIUS5image7getlineEPhiiiiii @1249
    _ZN8FREEDIUS5image7getlineEPiiiiiii @1250
    _ZN8FREEDIUS5image7getlineEPsiiiiii @1251
    _ZN8FREEDIUS5image7getlineEPtiiiiii @1252
    _ZN8FREEDIUS5image7getlineEPviiiiii @1253
    _ZN8FREEDIUS5image7putlineEPdiiiii @1254
    _ZN8FREEDIUS5image7putlineEPhiiiii @1255
    _ZN8FREEDIUS5image7putlineEPiiiiii @1256
    _ZN8FREEDIUS5image7putlineEPviiiii @1257
    _ZN8FREEDIUS5image9getcolumnEPdiiiiii @1258
    _ZN8FREEDIUS5image9getcolumnEPfiiiiii @1259
    _ZN8FREEDIUS5image9getcolumnEPiiiiiii @1260
    _ZN8FREEDIUS5image9map_imageEiiNS_22__image_element_type__EiPjS2_ @1261
    _ZN8FREEDIUS5image9putcolumnEPdiiiii @1262
    _ZN8FREEDIUS5image9putcolumnEPfiiiii @1263
    _ZN8FREEDIUS5image9putcolumnEPiiiiii @1264
    _ZN8FREEDIUS5listxEPvz @1265
    _ZN8FREEDIUS5nconcEPNS_19pointer_list_structES1_ @1266
    _ZN8FREEDIUS5nconsEPv @1267
    _ZN8FREEDIUS6Object9classNameEv @1268
    _ZN8FREEDIUS6gallocEi @1269
    _ZN8FREEDIUS6memberEPKcPNS_19pointer_list_structE @1270
    _ZN8FREEDIUS6xxfreeEPv @1271
    _ZN8FREEDIUS6zallocEi @1272
    _ZN8FREEDIUS7color_pEPNS_5imageE @1273
    _ZN8FREEDIUS7memberpEPKcPNS_19pointer_list_structE @1274
    _ZN8FREEDIUS7messageEPKcz @1275
    _ZN8FREEDIUS7pushnewEPKcPPNS_19pointer_list_structE @1276
    _ZN8FREEDIUS7tprintfEiPKcz @1277
    _ZN8FREEDIUS7verboseE @1278 DATA
    _ZN8FREEDIUS7warningEPKcz @1279
    _ZN8FREEDIUS8age_pageEPNS_8page_mapEi @1280
    _ZN8FREEDIUS8get_propEPNS_19pointer_list_structEPKcPv @1281
    _ZN8FREEDIUS8nreverseEPNS_19pointer_list_structE @1282
    _ZN8FREEDIUS8page_map16set_write_permitEi @1283
    _ZN8FREEDIUS8page_mapC1EiPNS_18basic_page_handlerEPNS_9page_poolEi @1284
    _ZN8FREEDIUS8page_mapC1Ev @1285
    _ZN8FREEDIUS8page_mapC2EiPNS_18basic_page_handlerEPNS_9page_poolEi @1286
    _ZN8FREEDIUS8page_mapC2Ev @1287
    _ZN8FREEDIUS8pow3_lutE @1288 DATA
    _ZN8FREEDIUS8put_propEPPNS_19pointer_list_structEPKcPv @1289
    _ZN8FREEDIUS8run_timeEP7timeval @1290
    _ZN8FREEDIUS8sleep_msEj @1291
    _ZN8FREEDIUS8sys_timeEP7timeval @1292
    _ZN8FREEDIUS8time_addEP7timevalS1_S1_ @1293
    _ZN8FREEDIUS9donothingEPNS_11paged_imageIhEEPNS0_ItEEPNS0_IjEEPNS0_IiEEPNS0_IfEEPNS0_IdEE @1294
    _ZN8FREEDIUS9donothingIdEEvPNS_11paged_imageIT_EE @1295
    _ZN8FREEDIUS9donothingIfEEvPNS_11paged_imageIT_EE @1296
    _ZN8FREEDIUS9donothingIhEEvPNS_11paged_imageIT_EE @1297
    _ZN8FREEDIUS9donothingIiEEvPNS_11paged_imageIT_EE @1298
    _ZN8FREEDIUS9donothingIjEEvPNS_11paged_imageIT_EE @1299
    _ZN8FREEDIUS9donothingItEEvPNS_11paged_imageIT_EE @1300
    _ZN8FREEDIUS9flush_mapEPNS_8page_mapE @1301
    _ZN8FREEDIUS9free_pageEPNS_8page_mapEi @1302
    _ZN8FREEDIUS9getrusageEiPNS_6rusageE @1303
    _ZN8FREEDIUS9page_pool14free_page_dataEPNS_16page_queue_entryE @1304
    _ZN8FREEDIUS9page_pool16resize_page_poolEi @1305
    _ZN8FREEDIUS9page_pool20new_page_queue_entryEv @1306
    _ZN8FREEDIUS9page_poolC1Ei @1307
    _ZN8FREEDIUS9page_poolC2Ei @1308
    _ZN8FREEDIUS9time_diffEP7timevalS1_S1_ @1309
    _ZN8FREEDIUS9time_secsEP7timeval @1310
    _ZN8FREEDIUS9xxcounterE @1311 DATA
    _ZN8FREEDIUS9zero_timeEP7timeval @1312
    _ZTIN8FREEDIUS11array_imageIdEE @1313 DATA
    _ZTIN8FREEDIUS11array_imageIfEE @1314 DATA
    _ZTIN8FREEDIUS11array_imageIhEE @1315 DATA
    _ZTIN8FREEDIUS11array_imageIiEE @1316 DATA
    _ZTIN8FREEDIUS11array_imageIjEE @1317 DATA
    _ZTIN8FREEDIUS11array_imageIsEE @1318 DATA
    _ZTIN8FREEDIUS11array_imageItEE @1319 DATA
    _ZTIN8FREEDIUS11paged_imageIdEE @1320 DATA
    _ZTIN8FREEDIUS11paged_imageIfEE @1321 DATA
    _ZTIN8FREEDIUS11paged_imageIhEE @1322 DATA
    _ZTIN8FREEDIUS11paged_imageIiEE @1323 DATA
    _ZTIN8FREEDIUS11paged_imageIjEE @1324 DATA
    _ZTIN8FREEDIUS11paged_imageIsEE @1325 DATA
    _ZTIN8FREEDIUS11paged_imageItEE @1326 DATA
    _ZTIN8FREEDIUS12mapped_imageE @1327 DATA
    _ZTIN8FREEDIUS15image_page_poolE @1328 DATA
    _ZTIN8FREEDIUS16array_image_baseE @1329 DATA
    _ZTIN8FREEDIUS16bmp_image_headerE @1330 DATA
    _ZTIN8FREEDIUS16page_queue_entryE @1331 DATA
    _ZTIN8FREEDIUS16paged_image_baseE @1332 DATA
    _ZTIN8FREEDIUS16pgm_image_headerE @1333 DATA
    _ZTIN8FREEDIUS16ppm_image_headerE @1334 DATA
    _ZTIN8FREEDIUS17jpeg_image_headerE @1335 DATA
    _ZTIN8FREEDIUS17tiff_image_headerE @1336 DATA
    _ZTIN8FREEDIUS18basic_image_headerE @1337 DATA
    _ZTIN8FREEDIUS18basic_page_handlerE @1338 DATA
    _ZTIN8FREEDIUS18image_page_handlerE @1339 DATA
    _ZTIN8FREEDIUS20blocked_mapped_imageE @1340 DATA
    _ZTIN8FREEDIUS22image_page_queue_entryE @1341 DATA
    _ZTIN8FREEDIUS23file_image_page_handlerE @1342 DATA
    _ZTIN8FREEDIUS23iu_testbed_image_headerE @1343 DATA
    _ZTIN8FREEDIUS23lazy_image_page_handlerE @1344 DATA
    _ZTIN8FREEDIUS26basic_blocked_image_headerE @1345 DATA
    _ZTIN8FREEDIUS28band_interleaved_array_imageINS_10RGB8_PIXELEEE @1346 DATA
    _ZTIN8FREEDIUS28band_interleaved_array_imageINS_11RGBA8_PIXELEEE @1347 DATA
    _ZTIN8FREEDIUS28band_interleaved_paged_imageINS_10RGB8_PIXELEEE @1348 DATA
    _ZTIN8FREEDIUS28band_interleaved_paged_imageINS_11RGBA8_PIXELEEE @1349 DATA
    _ZTIN8FREEDIUS28iu_testbed_file_image_headerE @1350 DATA
    _ZTIN8FREEDIUS28lisp_lazy_image_page_handlerE @1351 DATA
    _ZTIN8FREEDIUS28tiff_file_image_page_handlerE @1352 DATA
    _ZTIN8FREEDIUS28tiff_lazy_image_page_handlerE @1353 DATA
    _ZTIN8FREEDIUS30lazy_retile_image_page_handlerE @1354 DATA
    _ZTIN8FREEDIUS5imageE @1355 DATA
    _ZTIN8FREEDIUS6ObjectE @1356 DATA
    _ZTIN8FREEDIUS8page_mapE @1357 DATA
    _ZTIN8FREEDIUS9page_poolE @1358 DATA
    _ZTSN8FREEDIUS11array_imageIdEE @1359 DATA
    _ZTSN8FREEDIUS11array_imageIfEE @1360 DATA
    _ZTSN8FREEDIUS11array_imageIhEE @1361 DATA
    _ZTSN8FREEDIUS11array_imageIiEE @1362 DATA
    _ZTSN8FREEDIUS11array_imageIjEE @1363 DATA
    _ZTSN8FREEDIUS11array_imageIsEE @1364 DATA
    _ZTSN8FREEDIUS11array_imageItEE @1365 DATA
    _ZTSN8FREEDIUS11paged_imageIdEE @1366 DATA
    _ZTSN8FREEDIUS11paged_imageIfEE @1367 DATA
    _ZTSN8FREEDIUS11paged_imageIhEE @1368 DATA
    _ZTSN8FREEDIUS11paged_imageIiEE @1369 DATA
    _ZTSN8FREEDIUS11paged_imageIjEE @1370 DATA
    _ZTSN8FREEDIUS11paged_imageIsEE @1371 DATA
    _ZTSN8FREEDIUS11paged_imageItEE @1372 DATA
    _ZTSN8FREEDIUS12mapped_imageE @1373 DATA
    _ZTSN8FREEDIUS15image_page_poolE @1374 DATA
    _ZTSN8FREEDIUS16array_image_baseE @1375 DATA
    _ZTSN8FREEDIUS16bmp_image_headerE @1376 DATA
    _ZTSN8FREEDIUS16page_queue_entryE @1377 DATA
    _ZTSN8FREEDIUS16paged_image_baseE @1378 DATA
    _ZTSN8FREEDIUS16pgm_image_headerE @1379 DATA
    _ZTSN8FREEDIUS16ppm_image_headerE @1380 DATA
    _ZTSN8FREEDIUS17jpeg_image_headerE @1381 DATA
    _ZTSN8FREEDIUS17tiff_image_headerE @1382 DATA
    _ZTSN8FREEDIUS18basic_image_headerE @1383 DATA
    _ZTSN8FREEDIUS18basic_page_handlerE @1384 DATA
    _ZTSN8FREEDIUS18image_page_handlerE @1385 DATA
    _ZTSN8FREEDIUS20blocked_mapped_imageE @1386 DATA
    _ZTSN8FREEDIUS22image_page_queue_entryE @1387 DATA
    _ZTSN8FREEDIUS23file_image_page_handlerE @1388 DATA
    _ZTSN8FREEDIUS23iu_testbed_image_headerE @1389 DATA
    _ZTSN8FREEDIUS23lazy_image_page_handlerE @1390 DATA
    _ZTSN8FREEDIUS26basic_blocked_image_headerE @1391 DATA
    _ZTSN8FREEDIUS28band_interleaved_array_imageINS_10RGB8_PIXELEEE @1392 DATA
    _ZTSN8FREEDIUS28band_interleaved_array_imageINS_11RGBA8_PIXELEEE @1393 DATA
    _ZTSN8FREEDIUS28band_interleaved_paged_imageINS_10RGB8_PIXELEEE @1394 DATA
    _ZTSN8FREEDIUS28band_interleaved_paged_imageINS_11RGBA8_PIXELEEE @1395 DATA
    _ZTSN8FREEDIUS28iu_testbed_file_image_headerE @1396 DATA
    _ZTSN8FREEDIUS28lisp_lazy_image_page_handlerE @1397 DATA
    _ZTSN8FREEDIUS28tiff_file_image_page_handlerE @1398 DATA
    _ZTSN8FREEDIUS28tiff_lazy_image_page_handlerE @1399 DATA
    _ZTSN8FREEDIUS30lazy_retile_image_page_handlerE @1400 DATA
    _ZTSN8FREEDIUS5imageE @1401 DATA
    _ZTSN8FREEDIUS6ObjectE @1402 DATA
    _ZTSN8FREEDIUS8page_mapE @1403 DATA
    _ZTSN8FREEDIUS9page_poolE @1404 DATA
    _ZTVN8FREEDIUS11array_imageIdEE @1405 DATA
    _ZTVN8FREEDIUS11array_imageIfEE @1406 DATA
    _ZTVN8FREEDIUS11array_imageIhEE @1407 DATA
    _ZTVN8FREEDIUS11array_imageIiEE @1408 DATA
    _ZTVN8FREEDIUS11array_imageIjEE @1409 DATA
    _ZTVN8FREEDIUS11array_imageIsEE @1410 DATA
    _ZTVN8FREEDIUS11array_imageItEE @1411 DATA
    _ZTVN8FREEDIUS11paged_imageIdEE @1412 DATA
    _ZTVN8FREEDIUS11paged_imageIfEE @1413 DATA
    _ZTVN8FREEDIUS11paged_imageIhEE @1414 DATA
    _ZTVN8FREEDIUS11paged_imageIiEE @1415 DATA
    _ZTVN8FREEDIUS11paged_imageIjEE @1416 DATA
    _ZTVN8FREEDIUS11paged_imageIsEE @1417 DATA
    _ZTVN8FREEDIUS11paged_imageItEE @1418 DATA
    _ZTVN8FREEDIUS12mapped_imageE @1419 DATA
    _ZTVN8FREEDIUS15image_page_poolE @1420 DATA
    _ZTVN8FREEDIUS16array_image_baseE @1421 DATA
    _ZTVN8FREEDIUS16bmp_image_headerE @1422 DATA
    _ZTVN8FREEDIUS16page_queue_entryE @1423 DATA
    _ZTVN8FREEDIUS16paged_image_baseE @1424 DATA
    _ZTVN8FREEDIUS16pgm_image_headerE @1425 DATA
    _ZTVN8FREEDIUS16ppm_image_headerE @1426 DATA
    _ZTVN8FREEDIUS17jpeg_image_headerE @1427 DATA
    _ZTVN8FREEDIUS17tiff_image_headerE @1428 DATA
    _ZTVN8FREEDIUS18basic_image_headerE @1429 DATA
    _ZTVN8FREEDIUS18basic_page_handlerE @1430 DATA
    _ZTVN8FREEDIUS18image_page_handlerE @1431 DATA
    _ZTVN8FREEDIUS20blocked_mapped_imageE @1432 DATA
    _ZTVN8FREEDIUS22image_page_queue_entryE @1433 DATA
    _ZTVN8FREEDIUS23file_image_page_handlerE @1434 DATA
    _ZTVN8FREEDIUS23iu_testbed_image_headerE @1435 DATA
    _ZTVN8FREEDIUS23lazy_image_page_handlerE @1436 DATA
    _ZTVN8FREEDIUS26basic_blocked_image_headerE @1437 DATA
    _ZTVN8FREEDIUS28band_interleaved_array_imageINS_10RGB8_PIXELEEE @1438 DATA
    _ZTVN8FREEDIUS28band_interleaved_array_imageINS_11RGBA8_PIXELEEE @1439 DATA
    _ZTVN8FREEDIUS28band_interleaved_paged_imageINS_10RGB8_PIXELEEE @1440 DATA
    _ZTVN8FREEDIUS28band_interleaved_paged_imageINS_11RGBA8_PIXELEEE @1441 DATA
    _ZTVN8FREEDIUS28iu_testbed_file_image_headerE @1442 DATA
    _ZTVN8FREEDIUS28lisp_lazy_image_page_handlerE @1443 DATA
    _ZTVN8FREEDIUS28tiff_file_image_page_handlerE @1444 DATA
    _ZTVN8FREEDIUS28tiff_lazy_image_page_handlerE @1445 DATA
    _ZTVN8FREEDIUS30lazy_retile_image_page_handlerE @1446 DATA
    _ZTVN8FREEDIUS5imageE @1447 DATA
    _ZTVN8FREEDIUS6ObjectE @1448 DATA
    _ZTVN8FREEDIUS8page_mapE @1449 DATA
    _ZTVN8FREEDIUS9page_poolE @1450 DATA
    _dist_code @1451 DATA
    _length_code @1452 DATA
    _tr_align @1453
    _tr_flush_block @1454
    _tr_init @1455
    _tr_stored_block @1456
    _tr_tally @1457
    adler32 @1458
    adler32_combine @1459
    array_copy_u16_to_u32 @1460
    array_copy_u32_to_u16 @1461
    array_copy_u32_to_u8 @1462
    array_copy_u8_to_u32 @1463
    cmkfile @1464
    compress @1465
    compress2 @1466
    compressBound @1467
    copy_file @1468
    crc32 @1469
    crc32_combine @1470
    day_millisecond_time @1471
    deflate @1472
    deflateBound @1473
    deflateCopy @1474
    deflateEnd @1475
    deflateInit2_ @1476
    deflateInit_ @1477
    deflateParams @1478
    deflatePrime @1479
    deflateReset @1480
    deflateSetDictionary @1481
    deflateSetHeader @1482
    deflateTune @1483
    deflate_copyright @1484 DATA
    display_sRGB @1485 DATA
    expand_pathname @1486
    fd_seek @1487
    fr_nanosleep @1488
    fullread @1489
    fullwrite @1490
    galloc_sanity_check @1491
    get_crc_table @1492
    gzclearerr @1493
    gzclose @1494
    gzdirect @1495
    gzdopen @1496
    gzeof @1497
    gzerror @1498
    gzflush @1499
    gzgetc @1500
    gzgets @1501
    gzopen @1502
    gzprintf @1503
    gzputc @1504
    gzputs @1505
    gzread @1506
    gzrewind @1507
    gzseek @1508
    gzsetparams @1509
    gztell @1510
    gzungetc @1511
    gzwrite @1512
    inflate @1513
    inflateBack @1514
    inflateBackEnd @1515
    inflateBackInit_ @1516
    inflateCopy @1517
    inflateEnd @1518
    inflateGetHeader @1519
    inflateInit2_ @1520
    inflateInit_ @1521
    inflatePrime @1522
    inflateReset @1523
    inflateSetDictionary @1524
    inflateSync @1525
    inflateSyncPoint @1526
    inflate_copyright @1527 DATA
    inflate_fast @1528
    inflate_table @1529
    jcopy_block_row @1530
    jcopy_sample_rows @1531
    jdiv_round_up @1532
    jinit_1pass_quantizer @1533
    jinit_2pass_quantizer @1534
    jinit_c_coef_controller @1535
    jinit_c_main_controller @1536
    jinit_c_master_control @1537
    jinit_c_prep_controller @1538
    jinit_color_converter @1539
    jinit_color_deconverter @1540
    jinit_compress_master @1541
    jinit_d_coef_controller @1542
    jinit_d_main_controller @1543
    jinit_d_post_controller @1544
    jinit_downsampler @1545
    jinit_forward_dct @1546
    jinit_huff_decoder @1547
    jinit_huff_encoder @1548
    jinit_input_controller @1549
    jinit_inverse_dct @1550
    jinit_marker_reader @1551
    jinit_marker_writer @1552
    jinit_master_decompress @1553
    jinit_memory_mgr @1554
    jinit_merged_upsampler @1555
    jinit_phuff_decoder @1556
    jinit_phuff_encoder @1557
    jinit_upsampler @1558
    jpeg_CreateCompress @1559
    jpeg_CreateDecompress @1560
    jpeg_abort @1561
    jpeg_abort_compress @1562
    jpeg_abort_decompress @1563
    jpeg_add_quant_table @1564
    jpeg_alloc_huff_table @1565
    jpeg_alloc_quant_table @1566
    jpeg_calc_output_dimensions @1567
    jpeg_consume_input @1568
    jpeg_copy_critical_parameters @1569
    jpeg_default_colorspace @1570
    jpeg_destroy @1571
    jpeg_destroy_compress @1572
    jpeg_destroy_decompress @1573
    jpeg_fdct_float @1574
    jpeg_fdct_ifast @1575
    jpeg_fdct_islow @1576
    jpeg_fill_bit_buffer @1577
    jpeg_finish_compress @1578
    jpeg_finish_decompress @1579
    jpeg_finish_output @1580
    jpeg_free_large @1581
    jpeg_free_small @1582
    jpeg_gen_optimal_table @1583
    jpeg_get_large @1584
    jpeg_get_small @1585
    jpeg_has_multiple_scans @1586
    jpeg_huff_decode @1587
    jpeg_idct_1x1 @1588
    jpeg_idct_2x2 @1589
    jpeg_idct_4x4 @1590
    jpeg_idct_float @1591
    jpeg_idct_ifast @1592
    jpeg_idct_islow @1593
    jpeg_input_complete @1594
    jpeg_make_c_derived_tbl @1595
    jpeg_make_d_derived_tbl @1596
    jpeg_mem_available @1597
    jpeg_mem_init @1598
    jpeg_mem_term @1599
    jpeg_natural_order @1600 DATA
    jpeg_new_colormap @1601
    jpeg_open_backing_store @1602
    jpeg_quality_scaling @1603
    jpeg_read_coefficients @1604
    jpeg_read_header @1605
    jpeg_read_raw_data @1606
    jpeg_read_scanlines @1607
    jpeg_resync_to_restart @1608
    jpeg_save_markers @1609
    jpeg_set_colorspace @1610
    jpeg_set_defaults @1611
    jpeg_set_linear_quality @1612
    jpeg_set_marker_processor @1613
    jpeg_set_quality @1614
    jpeg_simple_progression @1615
    jpeg_start_compress @1616
    jpeg_start_decompress @1617
    jpeg_start_output @1618
    jpeg_std_error @1619
    jpeg_std_message_table @1620 DATA
    jpeg_stdio_dest @1621
    jpeg_stdio_src @1622
    jpeg_suppress_tables @1623
    jpeg_write_coefficients @1624
    jpeg_write_m_byte @1625
    jpeg_write_m_header @1626
    jpeg_write_marker @1627
    jpeg_write_raw_data @1628
    jpeg_write_scanlines @1629
    jpeg_write_tables @1630
    jround_up @1631
    jzero_far @1632
    mkfile @1633
    ppm_io_init @1634
    run_program @1635
    run_program_wait @1636
    save_pgm_image @1637
    save_ppm_image_RGB8 @1638
    strdup @1639
    tiffgetfield_string @1640
    uncompress @1641
    uv_decode @1642
    uv_encode @1643
    xxcounter_value @1644
    zError @1645
    z_errmsg @1646 DATA
    zcalloc @1647
    zcfree @1648
    zlibCompileFlags @1649
    zlibVersion @1650

IMPORTS

    PSAPI.DLL.EmptyWorkingSet
    PSAPI.DLL.EnumDeviceDrivers
    PSAPI.DLL.EnumPageFilesA
    PSAPI.DLL.EnumPageFilesW
    PSAPI.DLL.EnumProcessModules
    PSAPI.DLL.EnumProcesses
    PSAPI.DLL.GetDeviceDriverBaseNameA
    PSAPI.DLL.GetDeviceDriverBaseNameW
    PSAPI.DLL.GetDeviceDriverFileNameA
    PSAPI.DLL.GetDeviceDriverFileNameW
    PSAPI.DLL.GetMappedFileNameA
    PSAPI.DLL.GetMappedFileNameW
    PSAPI.DLL.GetModuleBaseNameA
    PSAPI.DLL.GetModuleBaseNameW
    PSAPI.DLL.GetModuleFileNameExA
    PSAPI.DLL.GetModuleFileNameExW
    PSAPI.DLL.GetModuleInformation
    PSAPI.DLL.GetPerformanceInfo
    PSAPI.DLL.GetProcessImageFileNameA
    PSAPI.DLL.GetProcessImageFileNameW
    PSAPI.DLL.GetProcessMemoryInfo
    PSAPI.DLL.GetWsChanges
    PSAPI.DLL.InitializeProcessForWsWatch
    PSAPI.DLL.QueryWorkingSet
